	.file	"contension.cpp"
	.text
.Ltext0:
	.file 0 "/home/wilson/Champsim-Multi-Threaded-Tracer/mt_program" "contension.cpp"
	.type	_ZL18__gthread_active_pv, @function
_ZL18__gthread_active_pv:
.LFB949:
	.file 1 "/usr/include/x86_64-linux-gnu/c++/11/bits/gthr-default.h"
	.loc 1 301 1
	.cfi_startproc
	pushq	%rbp
	.cfi_def_cfa_offset 16
	.cfi_offset 6, -16
	movq	%rsp, %rbp
	.cfi_def_cfa_register 6
	.loc 1 302 10
	movl	$1, %eax
	.loc 1 303 1
	popq	%rbp
	.cfi_def_cfa 7, 8
	ret
	.cfi_endproc
.LFE949:
	.size	_ZL18__gthread_active_pv, .-_ZL18__gthread_active_pv
	.section	.text._ZL20__gthread_mutex_lockP15pthread_mutex_t,"axG",@progbits,_ZNSt5mutex4lockEv,comdat
	.type	_ZL20__gthread_mutex_lockP15pthread_mutex_t, @function
_ZL20__gthread_mutex_lockP15pthread_mutex_t:
.LFB963:
	.loc 1 747 1
	.cfi_startproc
	pushq	%rbp
	.cfi_def_cfa_offset 16
	.cfi_offset 6, -16
	movq	%rsp, %rbp
	.cfi_def_cfa_register 6
	subq	$16, %rsp
	movq	%rdi, -8(%rbp)
	.loc 1 748 26
	call	_ZL18__gthread_active_pv
	testl	%eax, %eax
	setne	%al
	.loc 1 748 3
	testb	%al, %al
	je	.L4
	.loc 1 749 41
	movq	-8(%rbp), %rax
	movq	%rax, %rdi
	call	pthread_mutex_lock@PLT
	.loc 1 749 49
	jmp	.L5
.L4:
	.loc 1 751 12
	movl	$0, %eax
.L5:
	.loc 1 752 1
	leave
	.cfi_def_cfa 7, 8
	ret
	.cfi_endproc
.LFE963:
	.size	_ZL20__gthread_mutex_lockP15pthread_mutex_t, .-_ZL20__gthread_mutex_lockP15pthread_mutex_t
	.section	.text._ZL22__gthread_mutex_unlockP15pthread_mutex_t,"axG",@progbits,_ZNSt5mutex6unlockEv,comdat
	.type	_ZL22__gthread_mutex_unlockP15pthread_mutex_t, @function
_ZL22__gthread_mutex_unlockP15pthread_mutex_t:
.LFB966:
	.loc 1 777 1
	.cfi_startproc
	pushq	%rbp
	.cfi_def_cfa_offset 16
	.cfi_offset 6, -16
	movq	%rsp, %rbp
	.cfi_def_cfa_register 6
	subq	$16, %rsp
	movq	%rdi, -8(%rbp)
	.loc 1 778 26
	call	_ZL18__gthread_active_pv
	testl	%eax, %eax
	setne	%al
	.loc 1 778 3
	testb	%al, %al
	je	.L7
	.loc 1 779 43
	movq	-8(%rbp), %rax
	movq	%rax, %rdi
	call	pthread_mutex_unlock@PLT
	.loc 1 779 51
	jmp	.L8
.L7:
	.loc 1 781 12
	movl	$0, %eax
.L8:
	.loc 1 782 1
	leave
	.cfi_def_cfa 7, 8
	ret
	.cfi_endproc
.LFE966:
	.size	_ZL22__gthread_mutex_unlockP15pthread_mutex_t, .-_ZL22__gthread_mutex_unlockP15pthread_mutex_t
	.section	.text._ZNSt6thread2idC2Ev,"axG",@progbits,_ZNSt6thread2idC5Ev,comdat
	.align 2
	.weak	_ZNSt6thread2idC2Ev
	.type	_ZNSt6thread2idC2Ev, @function
_ZNSt6thread2idC2Ev:
.LFB979:
	.file 2 "/usr/include/c++/11/bits/std_thread.h"
	.loc 2 86 7
	.cfi_startproc
	endbr64
	pushq	%rbp
	.cfi_def_cfa_offset 16
	.cfi_offset 6, -16
	movq	%rsp, %rbp
	.cfi_def_cfa_register 6
	movq	%rdi, -8(%rbp)
.LBB2:
	.loc 2 86 23
	movq	-8(%rbp), %rax
	movq	$0, (%rax)
.LBE2:
	.loc 2 86 37
	nop
	popq	%rbp
	.cfi_def_cfa 7, 8
	ret
	.cfi_endproc
.LFE979:
	.size	_ZNSt6thread2idC2Ev, .-_ZNSt6thread2idC2Ev
	.weak	_ZNSt6thread2idC1Ev
	.set	_ZNSt6thread2idC1Ev,_ZNSt6thread2idC2Ev
	.section	.text._ZNSt6threadD2Ev,"axG",@progbits,_ZNSt6threadD5Ev,comdat
	.align 2
	.weak	_ZNSt6threadD2Ev
	.type	_ZNSt6threadD2Ev, @function
_ZNSt6threadD2Ev:
.LFB986:
	.loc 2 149 5
	.cfi_startproc
	endbr64
	pushq	%rbp
	.cfi_def_cfa_offset 16
	.cfi_offset 6, -16
	movq	%rsp, %rbp
	.cfi_def_cfa_register 6
	subq	$16, %rsp
	movq	%rdi, -8(%rbp)
.LBB3:
	.loc 2 151 19
	movq	-8(%rbp), %rax
	movq	%rax, %rdi
	call	_ZNKSt6thread8joinableEv
	.loc 2 151 7
	testb	%al, %al
	je	.L12
	.loc 2 152 16
	call	_ZSt9terminatev@PLT
.L12:
.LBE3:
	.loc 2 153 5
	nop
	leave
	.cfi_def_cfa 7, 8
	ret
	.cfi_endproc
.LFE986:
	.size	_ZNSt6threadD2Ev, .-_ZNSt6threadD2Ev
	.weak	_ZNSt6threadD1Ev
	.set	_ZNSt6threadD1Ev,_ZNSt6threadD2Ev
	.section	.text._ZNKSt6thread8joinableEv,"axG",@progbits,_ZNKSt6thread8joinableEv,comdat
	.align 2
	.weak	_ZNKSt6thread8joinableEv
	.type	_ZNKSt6thread8joinableEv, @function
_ZNKSt6thread8joinableEv:
.LFB995:
	.loc 2 175 5
	.cfi_startproc
	endbr64
	pushq	%rbp
	.cfi_def_cfa_offset 16
	.cfi_offset 6, -16
	movq	%rsp, %rbp
	.cfi_def_cfa_register 6
	subq	$32, %rsp
	movq	%rdi, -24(%rbp)
	.loc 2 175 5
	movq	%fs:40, %rax
	movq	%rax, -8(%rbp)
	xorl	%eax, %eax
	.loc 2 176 22
	leaq	-16(%rbp), %rax
	movq	%rax, %rdi
	call	_ZNSt6thread2idC1Ev
	movq	-16(%rbp), %rax
	movq	-24(%rbp), %rdx
	movq	%rax, %rsi
	movq	(%rdx), %rdi
	call	_ZSteqNSt6thread2idES0_
	.loc 2 176 29
	xorl	$1, %eax
	.loc 2 176 32
	movq	-8(%rbp), %rdx
	subq	%fs:40, %rdx
	je	.L15
	call	__stack_chk_fail@PLT
.L15:
	leave
	.cfi_def_cfa 7, 8
	ret
	.cfi_endproc
.LFE995:
	.size	_ZNKSt6thread8joinableEv, .-_ZNKSt6thread8joinableEv
	.section	.text._ZSteqNSt6thread2idES0_,"axG",@progbits,_ZSteqNSt6thread2idES0_,comdat
	.weak	_ZSteqNSt6thread2idES0_
	.type	_ZSteqNSt6thread2idES0_, @function
_ZSteqNSt6thread2idES0_:
.LFB1003:
	.loc 2 282 3
	.cfi_startproc
	endbr64
	pushq	%rbp
	.cfi_def_cfa_offset 16
	.cfi_offset 6, -16
	movq	%rsp, %rbp
	.cfi_def_cfa_register 6
	movq	%rdi, -8(%rbp)
	movq	%rsi, -16(%rbp)
	.loc 2 287 16
	movq	-8(%rbp), %rdx
	.loc 2 287 33
	movq	-16(%rbp), %rax
	cmpq	%rax, %rdx
	sete	%al
	.loc 2 288 3
	popq	%rbp
	.cfi_def_cfa 7, 8
	ret
	.cfi_endproc
.LFE1003:
	.size	_ZSteqNSt6thread2idES0_, .-_ZSteqNSt6thread2idES0_
	.section	.text._ZNSt5mutex4lockEv,"axG",@progbits,_ZNSt5mutex4lockEv,comdat
	.align 2
	.weak	_ZNSt5mutex4lockEv
	.type	_ZNSt5mutex4lockEv, @function
_ZNSt5mutex4lockEv:
.LFB1943:
	.file 3 "/usr/include/c++/11/bits/std_mutex.h"
	.loc 3 98 5
	.cfi_startproc
	endbr64
	pushq	%rbp
	.cfi_def_cfa_offset 16
	.cfi_offset 6, -16
	movq	%rsp, %rbp
	.cfi_def_cfa_register 6
	subq	$32, %rsp
	movq	%rdi, -24(%rbp)
	.loc 3 100 37
	movq	-24(%rbp), %rax
	movq	%rax, %rdi
	call	_ZL20__gthread_mutex_lockP15pthread_mutex_t
	movl	%eax, -4(%rbp)
	.loc 3 103 7
	cmpl	$0, -4(%rbp)
	je	.L20
	.loc 3 104 22
	movl	-4(%rbp), %eax
	movl	%eax, %edi
	call	_ZSt20__throw_system_errori@PLT
.L20:
	.loc 3 105 5
	nop
	leave
	.cfi_def_cfa 7, 8
	ret
	.cfi_endproc
.LFE1943:
	.size	_ZNSt5mutex4lockEv, .-_ZNSt5mutex4lockEv
	.section	.text._ZNSt5mutex6unlockEv,"axG",@progbits,_ZNSt5mutex6unlockEv,comdat
	.align 2
	.weak	_ZNSt5mutex6unlockEv
	.type	_ZNSt5mutex6unlockEv, @function
_ZNSt5mutex6unlockEv:
.LFB1945:
	.loc 3 115 5
	.cfi_startproc
	endbr64
	pushq	%rbp
	.cfi_def_cfa_offset 16
	.cfi_offset 6, -16
	movq	%rsp, %rbp
	.cfi_def_cfa_register 6
	subq	$16, %rsp
	movq	%rdi, -8(%rbp)
	.loc 3 118 29
	movq	-8(%rbp), %rax
	movq	%rax, %rdi
	call	_ZL22__gthread_mutex_unlockP15pthread_mutex_t
	.loc 3 119 5
	nop
	leave
	.cfi_def_cfa 7, 8
	ret
	.cfi_endproc
.LFE1945:
	.size	_ZNSt5mutex6unlockEv, .-_ZNSt5mutex6unlockEv
	.globl	lock
	.bss
	.align 32
	.type	lock, @object
	.size	lock, 40
lock:
	.zero	40
	.globl	arrayA
	.align 8
	.type	arrayA, @object
	.size	arrayA, 8
arrayA:
	.zero	8
	.globl	arrayB
	.align 8
	.type	arrayB, @object
	.size	arrayB, 8
arrayB:
	.zero	8
	.globl	arrayC
	.align 8
	.type	arrayC, @object
	.size	arrayC, 8
arrayC:
	.zero	8
	.globl	counter
	.align 4
	.type	counter, @object
	.size	counter, 4
counter:
	.zero	4
	.text
	.globl	_Z20matrixMultiplicationv
	.type	_Z20matrixMultiplicationv, @function
_Z20matrixMultiplicationv:
.LFB2036:
	.file 4 "contension.cpp"
	.loc 4 21 1
	.cfi_startproc
	endbr64
	pushq	%rbp
	.cfi_def_cfa_offset 16
	.cfi_offset 6, -16
	movq	%rsp, %rbp
	.cfi_def_cfa_register 6
	subq	$16, %rsp
	.loc 4 22 14
	leaq	lock(%rip), %rax
	movq	%rax, %rdi
	call	_ZNSt5mutex4lockEv
	.loc 4 24 26
	movl	counter(%rip), %eax
	.loc 4 24 9
	movslq	%eax, %rdx
	imulq	$1374389535, %rdx, %rdx
	shrq	$32, %rdx
	sarl	$4, %edx
	movl	%eax, %ecx
	sarl	$31, %ecx
	subl	%ecx, %edx
	movl	%edx, -8(%rbp)
	movl	-8(%rbp), %edx
	imull	$50, %edx, %edx
	subl	%edx, %eax
	movl	%eax, -8(%rbp)
	.loc 4 25 24
	movl	counter(%rip), %eax
	subl	-8(%rbp), %eax
	.loc 4 25 9
	movslq	%eax, %rdx
	imulq	$1374389535, %rdx, %rdx
	shrq	$32, %rdx
	sarl	$4, %edx
	sarl	$31, %eax
	movl	%eax, %ecx
	movl	%edx, %eax
	subl	%ecx, %eax
	movl	%eax, -4(%rbp)
	.loc 4 27 9
	movl	$0, -16(%rbp)
.LBB4:
	.loc 4 29 14
	movl	$0, -12(%rbp)
	.loc 4 29 5
	jmp	.L23
.L24:
	.loc 4 31 33 discriminator 3
	movq	arrayA(%rip), %rdx
	.loc 4 31 30 discriminator 3
	movl	-4(%rbp), %eax
	cltq
	.loc 4 31 33 discriminator 3
	salq	$3, %rax
	addq	%rdx, %rax
	movq	(%rax), %rdx
	.loc 4 31 35 discriminator 3
	movl	-12(%rbp), %eax
	cltq
	.loc 4 31 36 discriminator 3
	salq	$2, %rax
	addq	%rdx, %rax
	movl	(%rax), %edx
	.loc 4 31 48 discriminator 3
	movq	arrayB(%rip), %rcx
	.loc 4 31 47 discriminator 3
	movl	-12(%rbp), %eax
	cltq
	.loc 4 31 48 discriminator 3
	salq	$3, %rax
	addq	%rcx, %rax
	movq	(%rax), %rcx
	.loc 4 31 50 discriminator 3
	movl	-8(%rbp), %eax
	cltq
	.loc 4 31 56 discriminator 3
	salq	$2, %rax
	addq	%rcx, %rax
	movl	(%rax), %eax
	.loc 4 31 38 discriminator 3
	imull	%edx, %eax
	.loc 4 31 14 discriminator 3
	addl	%eax, -16(%rbp)
	.loc 4 29 5 discriminator 3
	addl	$1, -12(%rbp)
.L23:
	.loc 4 29 23 discriminator 1
	cmpl	$49, -12(%rbp)
	jle	.L24
.LBE4:
	.loc 4 34 15
	movq	arrayC(%rip), %rdx
	.loc 4 34 12
	movl	-4(%rbp), %eax
	cltq
	.loc 4 34 15
	salq	$3, %rax
	addq	%rdx, %rax
	movq	(%rax), %rdx
	.loc 4 34 17
	movl	-8(%rbp), %eax
	cltq
	.loc 4 34 23
	salq	$2, %rax
	addq	%rax, %rdx
	.loc 4 34 25
	movl	-16(%rbp), %eax
	movl	%eax, (%rdx)
	.loc 4 36 12
	movl	counter(%rip), %eax
	addl	$1, %eax
	movl	%eax, counter(%rip)
	.loc 4 38 16
	leaq	lock(%rip), %rax
	movq	%rax, %rdi
	call	_ZNSt5mutex6unlockEv
	.loc 4 40 17
	movl	counter(%rip), %eax
	.loc 4 40 5
	cmpl	$2498, %eax
	.loc 4 45 1
	leave
	.cfi_def_cfa 7, 8
	ret
	.cfi_endproc
.LFE2036:
	.size	_Z20matrixMultiplicationv, .-_Z20matrixMultiplicationv
	.section	.rodata
.LC0:
	.string	"spawn threads"
	.text
	.globl	_Z12spawnThreadsv
	.type	_Z12spawnThreadsv, @function
_Z12spawnThreadsv:
.LFB2037:
	.loc 4 48 1
	.cfi_startproc
	endbr64
	pushq	%rbp
	.cfi_def_cfa_offset 16
	.cfi_offset 6, -16
	movq	%rsp, %rbp
	.cfi_def_cfa_register 6
	.loc 4 49 11
	leaq	.LC0(%rip), %rax
	movq	%rax, %rdi
	call	puts@PLT
	.loc 4 57 5
	nop
	.loc 4 58 1
	popq	%rbp
	.cfi_def_cfa 7, 8
	ret
	.cfi_endproc
.LFE2037:
	.size	_Z12spawnThreadsv, .-_Z12spawnThreadsv
	.section	.rodata
	.align 8
.LC1:
	.string	"Multi-threaded application for matrix multiplication with contension."
.LC2:
	.string	"Lock memory location: %lx\n"
.LC3:
	.string	"Application exits!"
	.text
	.globl	main
	.type	main, @function
main:
.LFB2038:
	.loc 4 61 1
	.cfi_startproc
	.cfi_personality 0x9b,DW.ref.__gxx_personality_v0
	.cfi_lsda 0x1b,.LLSDA2038
	endbr64
	pushq	%rbp
	.cfi_def_cfa_offset 16
	.cfi_offset 6, -16
	movq	%rsp, %rbp
	.cfi_def_cfa_register 6
	pushq	%rbx
	subq	$56, %rsp
	.cfi_offset 3, -24
	.loc 4 61 1
	movq	%fs:40, %rax
	movq	%rax, -24(%rbp)
	xorl	%eax, %eax
	.loc 4 62 11
	leaq	.LC1(%rip), %rax
	movq	%rax, %rdi
.LEHB0:
	call	puts@PLT
	.loc 4 64 11
	leaq	lock(%rip), %rax
	movq	%rax, %rsi
	leaq	.LC2(%rip), %rax
	movq	%rax, %rdi
	movl	$0, %eax
	call	printf@PLT
	.loc 4 67 32
	movl	$400, %edi
	call	_Znam@PLT
	.loc 4 67 12
	movq	%rax, arrayA(%rip)
	.loc 4 68 32
	movl	$400, %edi
	call	_Znam@PLT
	.loc 4 68 12
	movq	%rax, arrayB(%rip)
	.loc 4 69 32
	movl	$400, %edi
	call	_Znam@PLT
	.loc 4 69 12
	movq	%rax, arrayC(%rip)
.LBB5:
	.loc 4 71 14
	movl	$0, -56(%rbp)
	.loc 4 71 5
	jmp	.L29
.L30:
	.loc 4 73 17
	movq	arrayA(%rip), %rdx
	.loc 4 73 16
	movl	-56(%rbp), %eax
	cltq
	.loc 4 73 17
	salq	$3, %rax
	leaq	(%rdx,%rax), %rbx
	.loc 4 73 38
	movl	$200, %edi
	call	_Znam@PLT
	.loc 4 73 19
	movq	%rax, (%rbx)
	.loc 4 74 17
	movq	arrayB(%rip), %rdx
	.loc 4 74 16
	movl	-56(%rbp), %eax
	cltq
	.loc 4 74 17
	salq	$3, %rax
	leaq	(%rdx,%rax), %rbx
	.loc 4 74 38
	movl	$200, %edi
	call	_Znam@PLT
	.loc 4 74 19
	movq	%rax, (%rbx)
	.loc 4 75 17
	movq	arrayC(%rip), %rdx
	.loc 4 75 16
	movl	-56(%rbp), %eax
	cltq
	.loc 4 75 17
	salq	$3, %rax
	leaq	(%rdx,%rax), %rbx
	.loc 4 75 38
	movl	$200, %edi
	call	_Znam@PLT
	.loc 4 75 19
	movq	%rax, (%rbx)
	.loc 4 71 5
	addl	$1, -56(%rbp)
.L29:
	.loc 4 71 23 discriminator 2
	cmpl	$49, -56(%rbp)
	jle	.L30
.LBE5:
	.loc 4 79 16
	movl	$0, %edi
	call	time@PLT
	.loc 4 79 11
	movl	%eax, %edi
	call	srand@PLT
.LBB6:
	.loc 4 81 14
	movl	$0, -52(%rbp)
	.loc 4 81 5
	jmp	.L31
.L34:
.LBB7:
.LBB8:
	.loc 4 83 18
	movl	$0, -48(%rbp)
	.loc 4 83 9
	jmp	.L32
.L33:
	.loc 4 85 32 discriminator 3
	call	rand@PLT
	.loc 4 85 21 discriminator 3
	movq	arrayA(%rip), %rcx
	.loc 4 85 20 discriminator 3
	movl	-52(%rbp), %edx
	movslq	%edx, %rdx
	.loc 4 85 21 discriminator 3
	salq	$3, %rdx
	addq	%rcx, %rdx
	movq	(%rdx), %rcx
	.loc 4 85 23 discriminator 3
	movl	-48(%rbp), %edx
	movslq	%edx, %rdx
	.loc 4 85 24 discriminator 3
	salq	$2, %rdx
	addq	%rdx, %rcx
	.loc 4 85 35 discriminator 3
	movslq	%eax, %rdx
	imulq	$274877907, %rdx, %rdx
	shrq	$32, %rdx
	sarl	$6, %edx
	movl	%eax, %esi
	sarl	$31, %esi
	subl	%esi, %edx
	imull	$1000, %edx, %esi
	subl	%esi, %eax
	movl	%eax, %edx
	.loc 4 85 26 discriminator 3
	movl	%edx, (%rcx)
	.loc 4 83 9 discriminator 3
	addl	$1, -48(%rbp)
.L32:
	.loc 4 83 27 discriminator 1
	cmpl	$49, -48(%rbp)
	jle	.L33
.LBE8:
.LBE7:
	.loc 4 81 5 discriminator 2
	addl	$1, -52(%rbp)
.L31:
	.loc 4 81 23 discriminator 1
	cmpl	$49, -52(%rbp)
	jle	.L34
.LBE6:
.LBB9:
	.loc 4 89 14
	movl	$0, -44(%rbp)
	.loc 4 89 5
	jmp	.L35
.L38:
.LBB10:
.LBB11:
	.loc 4 91 18
	movl	$0, -40(%rbp)
	.loc 4 91 9
	jmp	.L36
.L37:
	.loc 4 93 32 discriminator 3
	call	rand@PLT
	.loc 4 93 21 discriminator 3
	movq	arrayB(%rip), %rcx
	.loc 4 93 20 discriminator 3
	movl	-44(%rbp), %edx
	movslq	%edx, %rdx
	.loc 4 93 21 discriminator 3
	salq	$3, %rdx
	addq	%rcx, %rdx
	movq	(%rdx), %rcx
	.loc 4 93 23 discriminator 3
	movl	-40(%rbp), %edx
	movslq	%edx, %rdx
	.loc 4 93 24 discriminator 3
	salq	$2, %rdx
	addq	%rdx, %rcx
	.loc 4 93 35 discriminator 3
	movslq	%eax, %rdx
	imulq	$274877907, %rdx, %rdx
	shrq	$32, %rdx
	sarl	$6, %edx
	movl	%eax, %esi
	sarl	$31, %esi
	subl	%esi, %edx
	imull	$1000, %edx, %esi
	subl	%esi, %eax
	movl	%eax, %edx
	.loc 4 93 26 discriminator 3
	movl	%edx, (%rcx)
	.loc 4 91 9 discriminator 3
	addl	$1, -40(%rbp)
.L36:
	.loc 4 91 27 discriminator 1
	cmpl	$49, -40(%rbp)
	jle	.L37
.LBE11:
.LBE10:
	.loc 4 89 5 discriminator 2
	addl	$1, -44(%rbp)
.L35:
	.loc 4 89 23 discriminator 1
	cmpl	$49, -44(%rbp)
	jle	.L38
.LBE9:
	.loc 4 97 27
	leaq	-32(%rbp), %rax
	leaq	_Z12spawnThreadsv(%rip), %rdx
	movq	%rdx, %rsi
	movq	%rax, %rdi
	call	_ZNSt6threadC1IRFvvEJEvEEOT_DpOT0_
.LEHE0:
	.loc 4 101 12
	leaq	-32(%rbp), %rax
	movq	%rax, %rdi
.LEHB1:
	call	_ZNSt6thread4joinEv@PLT
.LBB12:
	.loc 4 106 14
	movl	$0, -36(%rbp)
	.loc 4 106 5
	jmp	.L39
.L43:
	.loc 4 108 26
	movq	arrayA(%rip), %rdx
	.loc 4 108 25
	movl	-36(%rbp), %eax
	cltq
	.loc 4 108 26
	salq	$3, %rax
	addq	%rdx, %rax
	movq	(%rax), %rax
	.loc 4 108 9
	testq	%rax, %rax
	je	.L40
	.loc 4 108 26 discriminator 1
	movq	arrayA(%rip), %rdx
	.loc 4 108 25 discriminator 1
	movl	-36(%rbp), %eax
	cltq
	.loc 4 108 26 discriminator 1
	salq	$3, %rax
	addq	%rdx, %rax
	movq	(%rax), %rax
	movq	%rax, %rdi
	call	_ZdaPv@PLT
.L40:
	.loc 4 109 26
	movq	arrayB(%rip), %rdx
	.loc 4 109 25
	movl	-36(%rbp), %eax
	cltq
	.loc 4 109 26
	salq	$3, %rax
	addq	%rdx, %rax
	movq	(%rax), %rax
	.loc 4 109 9
	testq	%rax, %rax
	je	.L41
	.loc 4 109 26 discriminator 1
	movq	arrayB(%rip), %rdx
	.loc 4 109 25 discriminator 1
	movl	-36(%rbp), %eax
	cltq
	.loc 4 109 26 discriminator 1
	salq	$3, %rax
	addq	%rdx, %rax
	movq	(%rax), %rax
	movq	%rax, %rdi
	call	_ZdaPv@PLT
.L41:
	.loc 4 110 26
	movq	arrayC(%rip), %rdx
	.loc 4 110 25
	movl	-36(%rbp), %eax
	cltq
	.loc 4 110 26
	salq	$3, %rax
	addq	%rdx, %rax
	movq	(%rax), %rax
	.loc 4 110 9
	testq	%rax, %rax
	je	.L42
	.loc 4 110 26 discriminator 1
	movq	arrayC(%rip), %rdx
	.loc 4 110 25 discriminator 1
	movl	-36(%rbp), %eax
	cltq
	.loc 4 110 26 discriminator 1
	salq	$3, %rax
	addq	%rdx, %rax
	movq	(%rax), %rax
	movq	%rax, %rdi
	call	_ZdaPv@PLT
.L42:
	.loc 4 106 5 discriminator 2
	addl	$1, -36(%rbp)
.L39:
	.loc 4 106 23 discriminator 1
	cmpl	$49, -36(%rbp)
	jle	.L43
.LBE12:
	.loc 4 113 5
	movq	arrayA(%rip), %rax
	testq	%rax, %rax
	je	.L44
	.loc 4 113 14 discriminator 1
	movq	arrayA(%rip), %rax
	movq	%rax, %rdi
	call	_ZdaPv@PLT
.L44:
	.loc 4 114 5
	movq	arrayB(%rip), %rax
	testq	%rax, %rax
	je	.L45
	.loc 4 114 14 discriminator 1
	movq	arrayB(%rip), %rax
	movq	%rax, %rdi
	call	_ZdaPv@PLT
.L45:
	.loc 4 115 5
	movq	arrayC(%rip), %rax
	testq	%rax, %rax
	je	.L46
	.loc 4 115 14 discriminator 1
	movq	arrayC(%rip), %rax
	movq	%rax, %rdi
	call	_ZdaPv@PLT
.L46:
	.loc 4 117 11
	leaq	.LC3(%rip), %rax
	movq	%rax, %rdi
	call	puts@PLT
.LEHE1:
	.loc 4 119 12
	movl	$0, %ebx
	.loc 4 120 1
	leaq	-32(%rbp), %rax
	movq	%rax, %rdi
	call	_ZNSt6threadD1Ev
	movl	%ebx, %eax
	movq	-24(%rbp), %rdx
	subq	%fs:40, %rdx
	je	.L49
	jmp	.L51
.L50:
	endbr64
	movq	%rax, %rbx
	leaq	-32(%rbp), %rax
	movq	%rax, %rdi
	call	_ZNSt6threadD1Ev
	movq	%rbx, %rax
	movq	%rax, %rdi
.LEHB2:
	call	_Unwind_Resume@PLT
.LEHE2:
.L51:
	call	__stack_chk_fail@PLT
.L49:
	movq	-8(%rbp), %rbx
	leave
	.cfi_def_cfa 7, 8
	ret
	.cfi_endproc
.LFE2038:
	.globl	__gxx_personality_v0
	.section	.gcc_except_table,"a",@progbits
.LLSDA2038:
	.byte	0xff
	.byte	0xff
	.byte	0x1
	.uleb128 .LLSDACSE2038-.LLSDACSB2038
.LLSDACSB2038:
	.uleb128 .LEHB0-.LFB2038
	.uleb128 .LEHE0-.LEHB0
	.uleb128 0
	.uleb128 0
	.uleb128 .LEHB1-.LFB2038
	.uleb128 .LEHE1-.LEHB1
	.uleb128 .L50-.LFB2038
	.uleb128 0
	.uleb128 .LEHB2-.LFB2038
	.uleb128 .LEHE2-.LEHB2
	.uleb128 0
	.uleb128 0
.LLSDACSE2038:
	.text
	.size	main, .-main
	.section	.text._ZNSt6threadC2IRFvvEJEvEEOT_DpOT0_,"axG",@progbits,_ZNSt6threadC5IRFvvEJEvEEOT_DpOT0_,comdat
	.align 2
	.weak	_ZNSt6threadC2IRFvvEJEvEEOT_DpOT0_
	.type	_ZNSt6threadC2IRFvvEJEvEEOT_DpOT0_, @function
_ZNSt6threadC2IRFvvEJEvEEOT_DpOT0_:
.LFB2343:
	.loc 2 127 7
	.cfi_startproc
	.cfi_personality 0x9b,DW.ref.__gxx_personality_v0
	.cfi_lsda 0x1b,.LLSDA2343
	endbr64
	pushq	%rbp
	.cfi_def_cfa_offset 16
	.cfi_offset 6, -16
	movq	%rsp, %rbp
	.cfi_def_cfa_register 6
	pushq	%rbx
	subq	$72, %rsp
	.cfi_offset 3, -24
	movq	%rdi, -56(%rbp)
	movq	%rsi, -64(%rbp)
	.loc 2 127 7
	movq	%fs:40, %rax
	movq	%rax, -24(%rbp)
	xorl	%eax, %eax
.LBB13:
	.loc 2 128 7
	movq	-56(%rbp), %rax
	movq	%rax, %rdi
	call	_ZNSt6thread2idC1Ev
.LBB14:
	.loc 2 138 7
	movq	$0, -32(%rbp)
	.loc 2 144 31
	movq	-64(%rbp), %rax
	movq	%rax, %rdi
	call	_ZSt7forwardIRFvvEEOT_RNSt16remove_referenceIS2_E4typeE
	movq	%rax, %rbx
	.loc 2 143 29
	movl	$16, %edi
.LEHB3:
	call	_Znwm@PLT
.LEHE3:
	movq	%rax, %rdi
	movq	%rbx, %rsi
	movq	%rdi, -72(%rbp)
.LEHB4:
	call	_ZNSt6thread11_State_implINS_8_InvokerISt5tupleIJPFvvEEEEEEC1IJRS3_EEEDpOT_
.LEHE4:
	.loc 2 143 18 discriminator 2
	leaq	-40(%rbp), %rax
	movq	-72(%rbp), %rsi
	movq	%rax, %rdi
	call	_ZNSt10unique_ptrINSt6thread6_StateESt14default_deleteIS1_EEC1IS3_vEEPS1_
	.loc 2 143 17 discriminator 2
	leaq	-40(%rbp), %rcx
	movq	-56(%rbp), %rax
	movl	$0, %edx
	movq	%rcx, %rsi
	movq	%rax, %rdi
.LEHB5:
	call	_ZNSt6thread15_M_start_threadESt10unique_ptrINS_6_StateESt14default_deleteIS1_EEPFvvE@PLT
.LEHE5:
	.loc 2 143 18 discriminator 4
	leaq	-40(%rbp), %rax
	movq	%rax, %rdi
	call	_ZNSt10unique_ptrINSt6thread6_StateESt14default_deleteIS1_EED1Ev
.LBE14:
.LBE13:
	.loc 2 146 7 discriminator 4
	nop
	movq	-24(%rbp), %rax
	subq	%fs:40, %rax
	je	.L55
	jmp	.L58
.L56:
	endbr64
.LBB16:
.LBB15:
	.loc 2 143 29
	movq	%rax, %rbx
	movl	$16, %esi
	movq	-72(%rbp), %rdi
	call	_ZdlPvm@PLT
	movq	%rbx, %rax
	movq	%rax, %rdi
.LEHB6:
	call	_Unwind_Resume@PLT
.L57:
	endbr64
	.loc 2 143 18
	movq	%rax, %rbx
	leaq	-40(%rbp), %rax
	movq	%rax, %rdi
	call	_ZNSt10unique_ptrINSt6thread6_StateESt14default_deleteIS1_EED1Ev
	movq	%rbx, %rax
	movq	%rax, %rdi
	call	_Unwind_Resume@PLT
.LEHE6:
.L58:
.LBE15:
.LBE16:
	.loc 2 146 7
	call	__stack_chk_fail@PLT
.L55:
	movq	-8(%rbp), %rbx
	leave
	.cfi_def_cfa 7, 8
	ret
	.cfi_endproc
.LFE2343:
	.section	.gcc_except_table
.LLSDA2343:
	.byte	0xff
	.byte	0xff
	.byte	0x1
	.uleb128 .LLSDACSE2343-.LLSDACSB2343
.LLSDACSB2343:
	.uleb128 .LEHB3-.LFB2343
	.uleb128 .LEHE3-.LEHB3
	.uleb128 0
	.uleb128 0
	.uleb128 .LEHB4-.LFB2343
	.uleb128 .LEHE4-.LEHB4
	.uleb128 .L56-.LFB2343
	.uleb128 0
	.uleb128 .LEHB5-.LFB2343
	.uleb128 .LEHE5-.LEHB5
	.uleb128 .L57-.LFB2343
	.uleb128 0
	.uleb128 .LEHB6-.LFB2343
	.uleb128 .LEHE6-.LEHB6
	.uleb128 0
	.uleb128 0
.LLSDACSE2343:
	.section	.text._ZNSt6threadC2IRFvvEJEvEEOT_DpOT0_,"axG",@progbits,_ZNSt6threadC5IRFvvEJEvEEOT_DpOT0_,comdat
	.size	_ZNSt6threadC2IRFvvEJEvEEOT_DpOT0_, .-_ZNSt6threadC2IRFvvEJEvEEOT_DpOT0_
	.weak	_ZNSt6threadC1IRFvvEJEvEEOT_DpOT0_
	.set	_ZNSt6threadC1IRFvvEJEvEEOT_DpOT0_,_ZNSt6threadC2IRFvvEJEvEEOT_DpOT0_
	.section	.text._ZSt7forwardIRFvvEEOT_RNSt16remove_referenceIS2_E4typeE,"axG",@progbits,_ZSt7forwardIRFvvEEOT_RNSt16remove_referenceIS2_E4typeE,comdat
	.weak	_ZSt7forwardIRFvvEEOT_RNSt16remove_referenceIS2_E4typeE
	.type	_ZSt7forwardIRFvvEEOT_RNSt16remove_referenceIS2_E4typeE, @function
_ZSt7forwardIRFvvEEOT_RNSt16remove_referenceIS2_E4typeE:
.LFB2433:
	.file 5 "/usr/include/c++/11/bits/move.h"
	.loc 5 77 5
	.cfi_startproc
	endbr64
	pushq	%rbp
	.cfi_def_cfa_offset 16
	.cfi_offset 6, -16
	movq	%rsp, %rbp
	.cfi_def_cfa_register 6
	movq	%rdi, -8(%rbp)
	.loc 5 78 36
	movq	-8(%rbp), %rax
	.loc 5 78 39
	popq	%rbp
	.cfi_def_cfa 7, 8
	ret
	.cfi_endproc
.LFE2433:
	.size	_ZSt7forwardIRFvvEEOT_RNSt16remove_referenceIS2_E4typeE, .-_ZSt7forwardIRFvvEEOT_RNSt16remove_referenceIS2_E4typeE
	.section	.text._ZNSt6thread6_StateC2Ev,"axG",@progbits,_ZNSt6thread6_StateC5Ev,comdat
	.align 2
	.weak	_ZNSt6thread6_StateC2Ev
	.type	_ZNSt6thread6_StateC2Ev, @function
_ZNSt6thread6_StateC2Ev:
.LFB2436:
	.loc 2 68 12
	.cfi_startproc
	endbr64
	pushq	%rbp
	.cfi_def_cfa_offset 16
	.cfi_offset 6, -16
	movq	%rsp, %rbp
	.cfi_def_cfa_register 6
	movq	%rdi, -8(%rbp)
.LBB17:
	.loc 2 68 12
	leaq	16+_ZTVNSt6thread6_StateE(%rip), %rdx
	movq	-8(%rbp), %rax
	movq	%rdx, (%rax)
.LBE17:
	nop
	popq	%rbp
	.cfi_def_cfa 7, 8
	ret
	.cfi_endproc
.LFE2436:
	.size	_ZNSt6thread6_StateC2Ev, .-_ZNSt6thread6_StateC2Ev
	.weak	_ZNSt6thread6_StateC1Ev
	.set	_ZNSt6thread6_StateC1Ev,_ZNSt6thread6_StateC2Ev
	.section	.text._ZNSt5tupleIJPFvvEEEC2ILb1ELb1EEERKS1_,"axG",@progbits,_ZNSt5tupleIJPFvvEEEC5ILb1ELb1EEERKS1_,comdat
	.align 2
	.weak	_ZNSt5tupleIJPFvvEEEC2ILb1ELb1EEERKS1_
	.type	_ZNSt5tupleIJPFvvEEEC2ILb1ELb1EEERKS1_, @function
_ZNSt5tupleIJPFvvEEEC2ILb1ELb1EEERKS1_:
.LFB2445:
	.file 6 "/usr/include/c++/11/tuple"
	.loc 6 731 2
	.cfi_startproc
	.cfi_personality 0x9b,DW.ref.__gxx_personality_v0
	.cfi_lsda 0x1b,.LLSDA2445
	endbr64
	pushq	%rbp
	.cfi_def_cfa_offset 16
	.cfi_offset 6, -16
	movq	%rsp, %rbp
	.cfi_def_cfa_register 6
	subq	$16, %rsp
	movq	%rdi, -8(%rbp)
	movq	%rsi, -16(%rbp)
.LBB18:
	.loc 6 733 28
	movq	-8(%rbp), %rax
	movq	-16(%rbp), %rdx
	movq	%rdx, %rsi
	movq	%rax, %rdi
	call	_ZNSt11_Tuple_implILm0EJPFvvEEEC2ERKS1_
.LBE18:
	.loc 6 733 32
	nop
	leave
	.cfi_def_cfa 7, 8
	ret
	.cfi_endproc
.LFE2445:
	.section	.gcc_except_table
.LLSDA2445:
	.byte	0xff
	.byte	0xff
	.byte	0x1
	.uleb128 .LLSDACSE2445-.LLSDACSB2445
.LLSDACSB2445:
.LLSDACSE2445:
	.section	.text._ZNSt5tupleIJPFvvEEEC2ILb1ELb1EEERKS1_,"axG",@progbits,_ZNSt5tupleIJPFvvEEEC5ILb1ELb1EEERKS1_,comdat
	.size	_ZNSt5tupleIJPFvvEEEC2ILb1ELb1EEERKS1_, .-_ZNSt5tupleIJPFvvEEEC2ILb1ELb1EEERKS1_
	.weak	_ZNSt5tupleIJPFvvEEEC1ILb1ELb1EEERKS1_
	.set	_ZNSt5tupleIJPFvvEEEC1ILb1ELb1EEERKS1_,_ZNSt5tupleIJPFvvEEEC2ILb1ELb1EEERKS1_
	.section	.text._ZNSt6thread11_State_implINS_8_InvokerISt5tupleIJPFvvEEEEEEC2IJRS3_EEEDpOT_,"axG",@progbits,_ZNSt6thread11_State_implINS_8_InvokerISt5tupleIJPFvvEEEEEEC5IJRS3_EEEDpOT_,comdat
	.align 2
	.weak	_ZNSt6thread11_State_implINS_8_InvokerISt5tupleIJPFvvEEEEEEC2IJRS3_EEEDpOT_
	.type	_ZNSt6thread11_State_implINS_8_InvokerISt5tupleIJPFvvEEEEEEC2IJRS3_EEEDpOT_, @function
_ZNSt6thread11_State_implINS_8_InvokerISt5tupleIJPFvvEEEEEEC2IJRS3_EEEDpOT_:
.LFB2447:
	.loc 2 206 4
	.cfi_startproc
	endbr64
	pushq	%rbp
	.cfi_def_cfa_offset 16
	.cfi_offset 6, -16
	movq	%rsp, %rbp
	.cfi_def_cfa_register 6
	pushq	%rbx
	subq	$40, %rsp
	.cfi_offset 3, -24
	movq	%rdi, -40(%rbp)
	movq	%rsi, -48(%rbp)
	.loc 2 206 4
	movq	%fs:40, %rax
	movq	%rax, -24(%rbp)
	xorl	%eax, %eax
.LBB19:
	.loc 2 207 46
	movq	-40(%rbp), %rax
	movq	%rax, %rdi
	call	_ZNSt6thread6_StateC2Ev
	leaq	16+_ZTVNSt6thread11_State_implINS_8_InvokerISt5tupleIJPFvvEEEEEEE(%rip), %rdx
	movq	-40(%rbp), %rax
	movq	%rdx, (%rax)
	.loc 2 207 6
	movq	-40(%rbp), %rax
	leaq	8(%rax), %rbx
	.loc 2 207 34
	movq	-48(%rbp), %rax
	movq	%rax, %rdi
	call	_ZSt7forwardIRFvvEEOT_RNSt16remove_referenceIS2_E4typeE
	.loc 2 207 6
	movq	%rax, -32(%rbp)
	leaq	-32(%rbp), %rax
	movq	%rax, %rsi
	movq	%rbx, %rdi
	call	_ZNSt5tupleIJPFvvEEEC1ILb1ELb1EEERKS1_
.LBE19:
	.loc 2 208 6
	nop
	movq	-24(%rbp), %rax
	subq	%fs:40, %rax
	je	.L64
	call	__stack_chk_fail@PLT
.L64:
	movq	-8(%rbp), %rbx
	leave
	.cfi_def_cfa 7, 8
	ret
	.cfi_endproc
.LFE2447:
	.size	_ZNSt6thread11_State_implINS_8_InvokerISt5tupleIJPFvvEEEEEEC2IJRS3_EEEDpOT_, .-_ZNSt6thread11_State_implINS_8_InvokerISt5tupleIJPFvvEEEEEEC2IJRS3_EEEDpOT_
	.weak	_ZNSt6thread11_State_implINS_8_InvokerISt5tupleIJPFvvEEEEEEC1IJRS3_EEEDpOT_
	.set	_ZNSt6thread11_State_implINS_8_InvokerISt5tupleIJPFvvEEEEEEC1IJRS3_EEEDpOT_,_ZNSt6thread11_State_implINS_8_InvokerISt5tupleIJPFvvEEEEEEC2IJRS3_EEEDpOT_
	.section	.text._ZNSt15__uniq_ptr_dataINSt6thread6_StateESt14default_deleteIS1_ELb1ELb1EECI2St15__uniq_ptr_implIS1_S3_EEPS1_,"axG",@progbits,_ZNSt15__uniq_ptr_dataINSt6thread6_StateESt14default_deleteIS1_ELb1ELb1EECI5St15__uniq_ptr_implIS1_S3_EEPS1_,comdat
	.align 2
	.weak	_ZNSt15__uniq_ptr_dataINSt6thread6_StateESt14default_deleteIS1_ELb1ELb1EECI2St15__uniq_ptr_implIS1_S3_EEPS1_
	.type	_ZNSt15__uniq_ptr_dataINSt6thread6_StateESt14default_deleteIS1_ELb1ELb1EECI2St15__uniq_ptr_implIS1_S3_EEPS1_, @function
_ZNSt15__uniq_ptr_dataINSt6thread6_StateESt14default_deleteIS1_ELb1ELb1EECI2St15__uniq_ptr_implIS1_S3_EEPS1_:
.LFB2451:
	.file 7 "/usr/include/c++/11/bits/unique_ptr.h"
	.loc 7 210 40
	.cfi_startproc
	endbr64
	pushq	%rbp
	.cfi_def_cfa_offset 16
	.cfi_offset 6, -16
	movq	%rsp, %rbp
	.cfi_def_cfa_register 6
	subq	$16, %rsp
	movq	%rdi, -8(%rbp)
	movq	%rsi, -16(%rbp)
.LBB20:
	.loc 7 210 40
	movq	-8(%rbp), %rax
	movq	-16(%rbp), %rdx
	movq	%rdx, %rsi
	movq	%rax, %rdi
	call	_ZNSt15__uniq_ptr_implINSt6thread6_StateESt14default_deleteIS1_EEC2EPS1_
.LBE20:
	nop
	leave
	.cfi_def_cfa 7, 8
	ret
	.cfi_endproc
.LFE2451:
	.size	_ZNSt15__uniq_ptr_dataINSt6thread6_StateESt14default_deleteIS1_ELb1ELb1EECI2St15__uniq_ptr_implIS1_S3_EEPS1_, .-_ZNSt15__uniq_ptr_dataINSt6thread6_StateESt14default_deleteIS1_ELb1ELb1EECI2St15__uniq_ptr_implIS1_S3_EEPS1_
	.weak	_ZNSt15__uniq_ptr_dataINSt6thread6_StateESt14default_deleteIS1_ELb1ELb1EECI1St15__uniq_ptr_implIS1_S3_EEPS1_
	.set	_ZNSt15__uniq_ptr_dataINSt6thread6_StateESt14default_deleteIS1_ELb1ELb1EECI1St15__uniq_ptr_implIS1_S3_EEPS1_,_ZNSt15__uniq_ptr_dataINSt6thread6_StateESt14default_deleteIS1_ELb1ELb1EECI2St15__uniq_ptr_implIS1_S3_EEPS1_
	.section	.text._ZNSt10unique_ptrINSt6thread6_StateESt14default_deleteIS1_EEC2IS3_vEEPS1_,"axG",@progbits,_ZNSt10unique_ptrINSt6thread6_StateESt14default_deleteIS1_EEC5IS3_vEEPS1_,comdat
	.align 2
	.weak	_ZNSt10unique_ptrINSt6thread6_StateESt14default_deleteIS1_EEC2IS3_vEEPS1_
	.type	_ZNSt10unique_ptrINSt6thread6_StateESt14default_deleteIS1_EEC2IS3_vEEPS1_, @function
_ZNSt10unique_ptrINSt6thread6_StateESt14default_deleteIS1_EEC2IS3_vEEPS1_:
.LFB2453:
	.loc 7 281 2
	.cfi_startproc
	.cfi_personality 0x9b,DW.ref.__gxx_personality_v0
	.cfi_lsda 0x1b,.LLSDA2453
	endbr64
	pushq	%rbp
	.cfi_def_cfa_offset 16
	.cfi_offset 6, -16
	movq	%rsp, %rbp
	.cfi_def_cfa_register 6
	subq	$16, %rsp
	movq	%rdi, -8(%rbp)
	movq	%rsi, -16(%rbp)
.LBB21:
	.loc 7 282 4
	movq	-8(%rbp), %rax
	movq	-16(%rbp), %rdx
	movq	%rdx, %rsi
	movq	%rax, %rdi
	call	_ZNSt15__uniq_ptr_dataINSt6thread6_StateESt14default_deleteIS1_ELb1ELb1EECI1St15__uniq_ptr_implIS1_S3_EEPS1_
.LBE21:
	.loc 7 283 11
	nop
	leave
	.cfi_def_cfa 7, 8
	ret
	.cfi_endproc
.LFE2453:
	.section	.gcc_except_table
.LLSDA2453:
	.byte	0xff
	.byte	0xff
	.byte	0x1
	.uleb128 .LLSDACSE2453-.LLSDACSB2453
.LLSDACSB2453:
.LLSDACSE2453:
	.section	.text._ZNSt10unique_ptrINSt6thread6_StateESt14default_deleteIS1_EEC2IS3_vEEPS1_,"axG",@progbits,_ZNSt10unique_ptrINSt6thread6_StateESt14default_deleteIS1_EEC5IS3_vEEPS1_,comdat
	.size	_ZNSt10unique_ptrINSt6thread6_StateESt14default_deleteIS1_EEC2IS3_vEEPS1_, .-_ZNSt10unique_ptrINSt6thread6_StateESt14default_deleteIS1_EEC2IS3_vEEPS1_
	.weak	_ZNSt10unique_ptrINSt6thread6_StateESt14default_deleteIS1_EEC1IS3_vEEPS1_
	.set	_ZNSt10unique_ptrINSt6thread6_StateESt14default_deleteIS1_EEC1IS3_vEEPS1_,_ZNSt10unique_ptrINSt6thread6_StateESt14default_deleteIS1_EEC2IS3_vEEPS1_
	.section	.text._ZNSt10unique_ptrINSt6thread6_StateESt14default_deleteIS1_EED2Ev,"axG",@progbits,_ZNSt10unique_ptrINSt6thread6_StateESt14default_deleteIS1_EED5Ev,comdat
	.align 2
	.weak	_ZNSt10unique_ptrINSt6thread6_StateESt14default_deleteIS1_EED2Ev
	.type	_ZNSt10unique_ptrINSt6thread6_StateESt14default_deleteIS1_EED2Ev, @function
_ZNSt10unique_ptrINSt6thread6_StateESt14default_deleteIS1_EED2Ev:
.LFB2456:
	.loc 7 355 7
	.cfi_startproc
	endbr64
	pushq	%rbp
	.cfi_def_cfa_offset 16
	.cfi_offset 6, -16
	movq	%rsp, %rbp
	.cfi_def_cfa_register 6
	pushq	%rbx
	subq	$40, %rsp
	.cfi_offset 3, -24
	movq	%rdi, -40(%rbp)
.LBB22:
.LBB23:
	.loc 7 359 27
	movq	-40(%rbp), %rax
	movq	%rax, %rdi
	call	_ZNSt15__uniq_ptr_implINSt6thread6_StateESt14default_deleteIS1_EE6_M_ptrEv
	movq	%rax, -24(%rbp)
	.loc 7 360 12
	movq	-24(%rbp), %rax
	movq	(%rax), %rax
	.loc 7 360 2
	testq	%rax, %rax
	je	.L68
	.loc 7 361 15
	movq	-40(%rbp), %rax
	movq	%rax, %rdi
	call	_ZNSt10unique_ptrINSt6thread6_StateESt14default_deleteIS1_EE11get_deleterEv
	movq	%rax, %rbx
	.loc 7 361 27
	movq	-24(%rbp), %rax
	movq	%rax, %rdi
	call	_ZSt4moveIRPNSt6thread6_StateEEONSt16remove_referenceIT_E4typeEOS5_
	.loc 7 361 17
	movq	(%rax), %rax
	movq	%rax, %rsi
	movq	%rbx, %rdi
	call	_ZNKSt14default_deleteINSt6thread6_StateEEclEPS1_
.L68:
	.loc 7 362 8
	movq	-24(%rbp), %rax
	movq	$0, (%rax)
.LBE23:
.LBE22:
	.loc 7 363 7
	nop
	movq	-8(%rbp), %rbx
	leave
	.cfi_def_cfa 7, 8
	ret
	.cfi_endproc
.LFE2456:
	.size	_ZNSt10unique_ptrINSt6thread6_StateESt14default_deleteIS1_EED2Ev, .-_ZNSt10unique_ptrINSt6thread6_StateESt14default_deleteIS1_EED2Ev
	.weak	_ZNSt10unique_ptrINSt6thread6_StateESt14default_deleteIS1_EED1Ev
	.set	_ZNSt10unique_ptrINSt6thread6_StateESt14default_deleteIS1_EED1Ev,_ZNSt10unique_ptrINSt6thread6_StateESt14default_deleteIS1_EED2Ev
	.section	.text._ZNSt11_Tuple_implILm0EJPFvvEEEC2ERKS1_,"axG",@progbits,_ZNSt11_Tuple_implILm0EJPFvvEEEC5ERKS1_,comdat
	.align 2
	.weak	_ZNSt11_Tuple_implILm0EJPFvvEEEC2ERKS1_
	.type	_ZNSt11_Tuple_implILm0EJPFvvEEEC2ERKS1_, @function
_ZNSt11_Tuple_implILm0EJPFvvEEEC2ERKS1_:
.LFB2496:
	.loc 6 434 7
	.cfi_startproc
	endbr64
	pushq	%rbp
	.cfi_def_cfa_offset 16
	.cfi_offset 6, -16
	movq	%rsp, %rbp
	.cfi_def_cfa_register 6
	subq	$16, %rsp
	movq	%rdi, -8(%rbp)
	movq	%rsi, -16(%rbp)
.LBB24:
	.loc 6 435 21
	movq	-8(%rbp), %rax
	movq	-16(%rbp), %rdx
	movq	%rdx, %rsi
	movq	%rax, %rdi
	call	_ZNSt10_Head_baseILm0EPFvvELb0EEC2ERKS1_
.LBE24:
	.loc 6 436 9
	nop
	leave
	.cfi_def_cfa 7, 8
	ret
	.cfi_endproc
.LFE2496:
	.size	_ZNSt11_Tuple_implILm0EJPFvvEEEC2ERKS1_, .-_ZNSt11_Tuple_implILm0EJPFvvEEEC2ERKS1_
	.weak	_ZNSt11_Tuple_implILm0EJPFvvEEEC1ERKS1_
	.set	_ZNSt11_Tuple_implILm0EJPFvvEEEC1ERKS1_,_ZNSt11_Tuple_implILm0EJPFvvEEEC2ERKS1_
	.section	.text._ZNSt15__uniq_ptr_implINSt6thread6_StateESt14default_deleteIS1_EEC2EPS1_,"axG",@progbits,_ZNSt15__uniq_ptr_implINSt6thread6_StateESt14default_deleteIS1_EEC5EPS1_,comdat
	.align 2
	.weak	_ZNSt15__uniq_ptr_implINSt6thread6_StateESt14default_deleteIS1_EEC2EPS1_
	.type	_ZNSt15__uniq_ptr_implINSt6thread6_StateESt14default_deleteIS1_EEC2EPS1_, @function
_ZNSt15__uniq_ptr_implINSt6thread6_StateESt14default_deleteIS1_EEC2EPS1_:
.LFB2500:
	.loc 7 155 7
	.cfi_startproc
	endbr64
	pushq	%rbp
	.cfi_def_cfa_offset 16
	.cfi_offset 6, -16
	movq	%rsp, %rbp
	.cfi_def_cfa_register 6
	pushq	%rbx
	subq	$24, %rsp
	.cfi_offset 3, -24
	movq	%rdi, -24(%rbp)
	movq	%rsi, -32(%rbp)
.LBB25:
	.loc 7 155 38
	movq	-24(%rbp), %rax
	movq	%rax, %rdi
	call	_ZNSt5tupleIJPNSt6thread6_StateESt14default_deleteIS1_EEEC1ILb1ELb1EEEv
	.loc 7 155 56
	movq	-32(%rbp), %rbx
	.loc 7 155 53
	movq	-24(%rbp), %rax
	movq	%rax, %rdi
	call	_ZNSt15__uniq_ptr_implINSt6thread6_StateESt14default_deleteIS1_EE6_M_ptrEv
	.loc 7 155 56
	movq	%rbx, (%rax)
.LBE25:
	.loc 7 155 63
	nop
	movq	-8(%rbp), %rbx
	leave
	.cfi_def_cfa 7, 8
	ret
	.cfi_endproc
.LFE2500:
	.size	_ZNSt15__uniq_ptr_implINSt6thread6_StateESt14default_deleteIS1_EEC2EPS1_, .-_ZNSt15__uniq_ptr_implINSt6thread6_StateESt14default_deleteIS1_EEC2EPS1_
	.weak	_ZNSt15__uniq_ptr_implINSt6thread6_StateESt14default_deleteIS1_EEC1EPS1_
	.set	_ZNSt15__uniq_ptr_implINSt6thread6_StateESt14default_deleteIS1_EEC1EPS1_,_ZNSt15__uniq_ptr_implINSt6thread6_StateESt14default_deleteIS1_EEC2EPS1_
	.section	.text._ZNSt15__uniq_ptr_implINSt6thread6_StateESt14default_deleteIS1_EE6_M_ptrEv,"axG",@progbits,_ZNSt15__uniq_ptr_implINSt6thread6_StateESt14default_deleteIS1_EE6_M_ptrEv,comdat
	.align 2
	.weak	_ZNSt15__uniq_ptr_implINSt6thread6_StateESt14default_deleteIS1_EE6_M_ptrEv
	.type	_ZNSt15__uniq_ptr_implINSt6thread6_StateESt14default_deleteIS1_EE6_M_ptrEv, @function
_ZNSt15__uniq_ptr_implINSt6thread6_StateESt14default_deleteIS1_EE6_M_ptrEv:
.LFB2502:
	.loc 7 172 18
	.cfi_startproc
	endbr64
	pushq	%rbp
	.cfi_def_cfa_offset 16
	.cfi_offset 6, -16
	movq	%rsp, %rbp
	.cfi_def_cfa_register 6
	subq	$16, %rsp
	movq	%rdi, -8(%rbp)
	.loc 7 172 48
	movq	-8(%rbp), %rax
	.loc 7 172 47
	movq	%rax, %rdi
	call	_ZSt3getILm0EJPNSt6thread6_StateESt14default_deleteIS1_EEERNSt13tuple_elementIXT_ESt5tupleIJDpT0_EEE4typeERS9_
	.loc 7 172 55
	leave
	.cfi_def_cfa 7, 8
	ret
	.cfi_endproc
.LFE2502:
	.size	_ZNSt15__uniq_ptr_implINSt6thread6_StateESt14default_deleteIS1_EE6_M_ptrEv, .-_ZNSt15__uniq_ptr_implINSt6thread6_StateESt14default_deleteIS1_EE6_M_ptrEv
	.section	.text._ZNSt10unique_ptrINSt6thread6_StateESt14default_deleteIS1_EE11get_deleterEv,"axG",@progbits,_ZNSt10unique_ptrINSt6thread6_StateESt14default_deleteIS1_EE11get_deleterEv,comdat
	.align 2
	.weak	_ZNSt10unique_ptrINSt6thread6_StateESt14default_deleteIS1_EE11get_deleterEv
	.type	_ZNSt10unique_ptrINSt6thread6_StateESt14default_deleteIS1_EE11get_deleterEv, @function
_ZNSt10unique_ptrINSt6thread6_StateESt14default_deleteIS1_EE11get_deleterEv:
.LFB2503:
	.loc 7 426 7
	.cfi_startproc
	endbr64
	pushq	%rbp
	.cfi_def_cfa_offset 16
	.cfi_offset 6, -16
	movq	%rsp, %rbp
	.cfi_def_cfa_register 6
	subq	$16, %rsp
	movq	%rdi, -8(%rbp)
	.loc 7 427 31
	movq	-8(%rbp), %rax
	movq	%rax, %rdi
	call	_ZNSt15__uniq_ptr_implINSt6thread6_StateESt14default_deleteIS1_EE10_M_deleterEv
	.loc 7 427 35
	leave
	.cfi_def_cfa 7, 8
	ret
	.cfi_endproc
.LFE2503:
	.size	_ZNSt10unique_ptrINSt6thread6_StateESt14default_deleteIS1_EE11get_deleterEv, .-_ZNSt10unique_ptrINSt6thread6_StateESt14default_deleteIS1_EE11get_deleterEv
	.section	.text._ZSt4moveIRPNSt6thread6_StateEEONSt16remove_referenceIT_E4typeEOS5_,"axG",@progbits,_ZSt4moveIRPNSt6thread6_StateEEONSt16remove_referenceIT_E4typeEOS5_,comdat
	.weak	_ZSt4moveIRPNSt6thread6_StateEEONSt16remove_referenceIT_E4typeEOS5_
	.type	_ZSt4moveIRPNSt6thread6_StateEEONSt16remove_referenceIT_E4typeEOS5_, @function
_ZSt4moveIRPNSt6thread6_StateEEONSt16remove_referenceIT_E4typeEOS5_:
.LFB2504:
	.loc 5 104 5
	.cfi_startproc
	endbr64
	pushq	%rbp
	.cfi_def_cfa_offset 16
	.cfi_offset 6, -16
	movq	%rsp, %rbp
	.cfi_def_cfa_register 6
	movq	%rdi, -8(%rbp)
	.loc 5 105 74
	movq	-8(%rbp), %rax
	.loc 5 105 77
	popq	%rbp
	.cfi_def_cfa 7, 8
	ret
	.cfi_endproc
.LFE2504:
	.size	_ZSt4moveIRPNSt6thread6_StateEEONSt16remove_referenceIT_E4typeEOS5_, .-_ZSt4moveIRPNSt6thread6_StateEEONSt16remove_referenceIT_E4typeEOS5_
	.section	.text._ZNKSt14default_deleteINSt6thread6_StateEEclEPS1_,"axG",@progbits,_ZNKSt14default_deleteINSt6thread6_StateEEclEPS1_,comdat
	.align 2
	.weak	_ZNKSt14default_deleteINSt6thread6_StateEEclEPS1_
	.type	_ZNKSt14default_deleteINSt6thread6_StateEEclEPS1_, @function
_ZNKSt14default_deleteINSt6thread6_StateEEclEPS1_:
.LFB2505:
	.loc 7 79 7
	.cfi_startproc
	endbr64
	pushq	%rbp
	.cfi_def_cfa_offset 16
	.cfi_offset 6, -16
	movq	%rsp, %rbp
	.cfi_def_cfa_register 6
	subq	$16, %rsp
	movq	%rdi, -8(%rbp)
	movq	%rsi, -16(%rbp)
	.loc 7 85 9
	movq	-16(%rbp), %rax
	.loc 7 85 2
	testq	%rax, %rax
	je	.L79
	.loc 7 85 2 is_stmt 0 discriminator 1
	movq	(%rax), %rdx
	addq	$8, %rdx
	movq	(%rdx), %rdx
	movq	%rax, %rdi
	call	*%rdx
.LVL0:
.L79:
	.loc 7 86 7 is_stmt 1
	nop
	leave
	.cfi_def_cfa 7, 8
	ret
	.cfi_endproc
.LFE2505:
	.size	_ZNKSt14default_deleteINSt6thread6_StateEEclEPS1_, .-_ZNKSt14default_deleteINSt6thread6_StateEEclEPS1_
	.section	.text._ZNSt10_Head_baseILm0EPFvvELb0EEC2ERKS1_,"axG",@progbits,_ZNSt10_Head_baseILm0EPFvvELb0EEC5ERKS1_,comdat
	.align 2
	.weak	_ZNSt10_Head_baseILm0EPFvvELb0EEC2ERKS1_
	.type	_ZNSt10_Head_baseILm0EPFvvELb0EEC2ERKS1_, @function
_ZNSt10_Head_baseILm0EPFvvELb0EEC2ERKS1_:
.LFB2551:
	.loc 6 192 17
	.cfi_startproc
	endbr64
	pushq	%rbp
	.cfi_def_cfa_offset 16
	.cfi_offset 6, -16
	movq	%rsp, %rbp
	.cfi_def_cfa_register 6
	movq	%rdi, -8(%rbp)
	movq	%rsi, -16(%rbp)
.LBB26:
	.loc 6 193 9
	movq	-16(%rbp), %rax
	movq	(%rax), %rdx
	movq	-8(%rbp), %rax
	movq	%rdx, (%rax)
.LBE26:
	.loc 6 193 29
	nop
	popq	%rbp
	.cfi_def_cfa 7, 8
	ret
	.cfi_endproc
.LFE2551:
	.size	_ZNSt10_Head_baseILm0EPFvvELb0EEC2ERKS1_, .-_ZNSt10_Head_baseILm0EPFvvELb0EEC2ERKS1_
	.weak	_ZNSt10_Head_baseILm0EPFvvELb0EEC1ERKS1_
	.set	_ZNSt10_Head_baseILm0EPFvvELb0EEC1ERKS1_,_ZNSt10_Head_baseILm0EPFvvELb0EEC2ERKS1_
	.section	.text._ZNSt5tupleIJPNSt6thread6_StateESt14default_deleteIS1_EEEC2ILb1ELb1EEEv,"axG",@progbits,_ZNSt5tupleIJPNSt6thread6_StateESt14default_deleteIS1_EEEC5ILb1ELb1EEEv,comdat
	.align 2
	.weak	_ZNSt5tupleIJPNSt6thread6_StateESt14default_deleteIS1_EEEC2ILb1ELb1EEEv
	.type	_ZNSt5tupleIJPNSt6thread6_StateESt14default_deleteIS1_EEEC2ILb1ELb1EEEv, @function
_ZNSt5tupleIJPNSt6thread6_StateESt14default_deleteIS1_EEEC2ILb1ELb1EEEv:
.LFB2554:
	.loc 6 1053 2
	.cfi_startproc
	.cfi_personality 0x9b,DW.ref.__gxx_personality_v0
	.cfi_lsda 0x1b,.LLSDA2554
	endbr64
	pushq	%rbp
	.cfi_def_cfa_offset 16
	.cfi_offset 6, -16
	movq	%rsp, %rbp
	.cfi_def_cfa_register 6
	subq	$16, %rsp
	movq	%rdi, -8(%rbp)
.LBB27:
	.loc 6 1055 15
	movq	-8(%rbp), %rax
	movq	%rax, %rdi
	call	_ZNSt11_Tuple_implILm0EJPNSt6thread6_StateESt14default_deleteIS1_EEEC2Ev
.LBE27:
	.loc 6 1055 19
	nop
	leave
	.cfi_def_cfa 7, 8
	ret
	.cfi_endproc
.LFE2554:
	.section	.gcc_except_table
.LLSDA2554:
	.byte	0xff
	.byte	0xff
	.byte	0x1
	.uleb128 .LLSDACSE2554-.LLSDACSB2554
.LLSDACSB2554:
.LLSDACSE2554:
	.section	.text._ZNSt5tupleIJPNSt6thread6_StateESt14default_deleteIS1_EEEC2ILb1ELb1EEEv,"axG",@progbits,_ZNSt5tupleIJPNSt6thread6_StateESt14default_deleteIS1_EEEC5ILb1ELb1EEEv,comdat
	.size	_ZNSt5tupleIJPNSt6thread6_StateESt14default_deleteIS1_EEEC2ILb1ELb1EEEv, .-_ZNSt5tupleIJPNSt6thread6_StateESt14default_deleteIS1_EEEC2ILb1ELb1EEEv
	.weak	_ZNSt5tupleIJPNSt6thread6_StateESt14default_deleteIS1_EEEC1ILb1ELb1EEEv
	.set	_ZNSt5tupleIJPNSt6thread6_StateESt14default_deleteIS1_EEEC1ILb1ELb1EEEv,_ZNSt5tupleIJPNSt6thread6_StateESt14default_deleteIS1_EEEC2ILb1ELb1EEEv
	.section	.text._ZSt3getILm0EJPNSt6thread6_StateESt14default_deleteIS1_EEERNSt13tuple_elementIXT_ESt5tupleIJDpT0_EEE4typeERS9_,"axG",@progbits,_ZSt3getILm0EJPNSt6thread6_StateESt14default_deleteIS1_EEERNSt13tuple_elementIXT_ESt5tupleIJDpT0_EEE4typeERS9_,comdat
	.weak	_ZSt3getILm0EJPNSt6thread6_StateESt14default_deleteIS1_EEERNSt13tuple_elementIXT_ESt5tupleIJDpT0_EEE4typeERS9_
	.type	_ZSt3getILm0EJPNSt6thread6_StateESt14default_deleteIS1_EEERNSt13tuple_elementIXT_ESt5tupleIJDpT0_EEE4typeERS9_, @function
_ZSt3getILm0EJPNSt6thread6_StateESt14default_deleteIS1_EEERNSt13tuple_elementIXT_ESt5tupleIJDpT0_EEE4typeERS9_:
.LFB2556:
	.loc 6 1397 5
	.cfi_startproc
	endbr64
	pushq	%rbp
	.cfi_def_cfa_offset 16
	.cfi_offset 6, -16
	movq	%rsp, %rbp
	.cfi_def_cfa_register 6
	subq	$16, %rsp
	movq	%rdi, -8(%rbp)
	.loc 6 1398 36
	movq	-8(%rbp), %rax
	movq	%rax, %rdi
	call	_ZSt12__get_helperILm0EPNSt6thread6_StateEJSt14default_deleteIS1_EEERT0_RSt11_Tuple_implIXT_EJS5_DpT1_EE
	.loc 6 1398 43
	leave
	.cfi_def_cfa 7, 8
	ret
	.cfi_endproc
.LFE2556:
	.size	_ZSt3getILm0EJPNSt6thread6_StateESt14default_deleteIS1_EEERNSt13tuple_elementIXT_ESt5tupleIJDpT0_EEE4typeERS9_, .-_ZSt3getILm0EJPNSt6thread6_StateESt14default_deleteIS1_EEERNSt13tuple_elementIXT_ESt5tupleIJDpT0_EEE4typeERS9_
	.section	.text._ZNSt15__uniq_ptr_implINSt6thread6_StateESt14default_deleteIS1_EE10_M_deleterEv,"axG",@progbits,_ZNSt15__uniq_ptr_implINSt6thread6_StateESt14default_deleteIS1_EE10_M_deleterEv,comdat
	.align 2
	.weak	_ZNSt15__uniq_ptr_implINSt6thread6_StateESt14default_deleteIS1_EE10_M_deleterEv
	.type	_ZNSt15__uniq_ptr_implINSt6thread6_StateESt14default_deleteIS1_EE10_M_deleterEv, @function
_ZNSt15__uniq_ptr_implINSt6thread6_StateESt14default_deleteIS1_EE10_M_deleterEv:
.LFB2557:
	.loc 7 174 18
	.cfi_startproc
	endbr64
	pushq	%rbp
	.cfi_def_cfa_offset 16
	.cfi_offset 6, -16
	movq	%rsp, %rbp
	.cfi_def_cfa_register 6
	subq	$16, %rsp
	movq	%rdi, -8(%rbp)
	.loc 7 174 52
	movq	-8(%rbp), %rax
	.loc 7 174 51
	movq	%rax, %rdi
	call	_ZSt3getILm1EJPNSt6thread6_StateESt14default_deleteIS1_EEERNSt13tuple_elementIXT_ESt5tupleIJDpT0_EEE4typeERS9_
	.loc 7 174 59
	leave
	.cfi_def_cfa 7, 8
	ret
	.cfi_endproc
.LFE2557:
	.size	_ZNSt15__uniq_ptr_implINSt6thread6_StateESt14default_deleteIS1_EE10_M_deleterEv, .-_ZNSt15__uniq_ptr_implINSt6thread6_StateESt14default_deleteIS1_EE10_M_deleterEv
	.section	.text._ZNSt11_Tuple_implILm0EJPNSt6thread6_StateESt14default_deleteIS1_EEEC2Ev,"axG",@progbits,_ZNSt11_Tuple_implILm0EJPNSt6thread6_StateESt14default_deleteIS1_EEEC5Ev,comdat
	.align 2
	.weak	_ZNSt11_Tuple_implILm0EJPNSt6thread6_StateESt14default_deleteIS1_EEEC2Ev
	.type	_ZNSt11_Tuple_implILm0EJPNSt6thread6_StateESt14default_deleteIS1_EEEC2Ev, @function
_ZNSt11_Tuple_implILm0EJPNSt6thread6_StateESt14default_deleteIS1_EEEC2Ev:
.LFB2603:
	.loc 6 279 17
	.cfi_startproc
	endbr64
	pushq	%rbp
	.cfi_def_cfa_offset 16
	.cfi_offset 6, -16
	movq	%rsp, %rbp
	.cfi_def_cfa_register 6
	subq	$16, %rsp
	movq	%rdi, -8(%rbp)
.LBB28:
	.loc 6 280 29
	movq	-8(%rbp), %rax
	movq	%rax, %rdi
	call	_ZNSt11_Tuple_implILm1EJSt14default_deleteINSt6thread6_StateEEEEC2Ev
	movq	-8(%rbp), %rax
	movq	%rax, %rdi
	call	_ZNSt10_Head_baseILm0EPNSt6thread6_StateELb0EEC2Ev
.LBE28:
	.loc 6 280 33
	nop
	leave
	.cfi_def_cfa 7, 8
	ret
	.cfi_endproc
.LFE2603:
	.size	_ZNSt11_Tuple_implILm0EJPNSt6thread6_StateESt14default_deleteIS1_EEEC2Ev, .-_ZNSt11_Tuple_implILm0EJPNSt6thread6_StateESt14default_deleteIS1_EEEC2Ev
	.weak	_ZNSt11_Tuple_implILm0EJPNSt6thread6_StateESt14default_deleteIS1_EEEC1Ev
	.set	_ZNSt11_Tuple_implILm0EJPNSt6thread6_StateESt14default_deleteIS1_EEEC1Ev,_ZNSt11_Tuple_implILm0EJPNSt6thread6_StateESt14default_deleteIS1_EEEC2Ev
	.section	.text._ZSt12__get_helperILm0EPNSt6thread6_StateEJSt14default_deleteIS1_EEERT0_RSt11_Tuple_implIXT_EJS5_DpT1_EE,"axG",@progbits,_ZSt12__get_helperILm0EPNSt6thread6_StateEJSt14default_deleteIS1_EEERT0_RSt11_Tuple_implIXT_EJS5_DpT1_EE,comdat
	.weak	_ZSt12__get_helperILm0EPNSt6thread6_StateEJSt14default_deleteIS1_EEERT0_RSt11_Tuple_implIXT_EJS5_DpT1_EE
	.type	_ZSt12__get_helperILm0EPNSt6thread6_StateEJSt14default_deleteIS1_EEERT0_RSt11_Tuple_implIXT_EJS5_DpT1_EE, @function
_ZSt12__get_helperILm0EPNSt6thread6_StateEJSt14default_deleteIS1_EEERT0_RSt11_Tuple_implIXT_EJS5_DpT1_EE:
.LFB2605:
	.loc 6 1381 5
	.cfi_startproc
	endbr64
	pushq	%rbp
	.cfi_def_cfa_offset 16
	.cfi_offset 6, -16
	movq	%rsp, %rbp
	.cfi_def_cfa_register 6
	subq	$16, %rsp
	movq	%rdi, -8(%rbp)
	.loc 6 1382 56
	movq	-8(%rbp), %rax
	movq	%rax, %rdi
	call	_ZNSt11_Tuple_implILm0EJPNSt6thread6_StateESt14default_deleteIS1_EEE7_M_headERS5_
	.loc 6 1382 63
	leave
	.cfi_def_cfa 7, 8
	ret
	.cfi_endproc
.LFE2605:
	.size	_ZSt12__get_helperILm0EPNSt6thread6_StateEJSt14default_deleteIS1_EEERT0_RSt11_Tuple_implIXT_EJS5_DpT1_EE, .-_ZSt12__get_helperILm0EPNSt6thread6_StateEJSt14default_deleteIS1_EEERT0_RSt11_Tuple_implIXT_EJS5_DpT1_EE
	.section	.text._ZSt3getILm1EJPNSt6thread6_StateESt14default_deleteIS1_EEERNSt13tuple_elementIXT_ESt5tupleIJDpT0_EEE4typeERS9_,"axG",@progbits,_ZSt3getILm1EJPNSt6thread6_StateESt14default_deleteIS1_EEERNSt13tuple_elementIXT_ESt5tupleIJDpT0_EEE4typeERS9_,comdat
	.weak	_ZSt3getILm1EJPNSt6thread6_StateESt14default_deleteIS1_EEERNSt13tuple_elementIXT_ESt5tupleIJDpT0_EEE4typeERS9_
	.type	_ZSt3getILm1EJPNSt6thread6_StateESt14default_deleteIS1_EEERNSt13tuple_elementIXT_ESt5tupleIJDpT0_EEE4typeERS9_, @function
_ZSt3getILm1EJPNSt6thread6_StateESt14default_deleteIS1_EEERNSt13tuple_elementIXT_ESt5tupleIJDpT0_EEE4typeERS9_:
.LFB2606:
	.loc 6 1397 5
	.cfi_startproc
	endbr64
	pushq	%rbp
	.cfi_def_cfa_offset 16
	.cfi_offset 6, -16
	movq	%rsp, %rbp
	.cfi_def_cfa_register 6
	subq	$16, %rsp
	movq	%rdi, -8(%rbp)
	.loc 6 1398 36
	movq	-8(%rbp), %rax
	movq	%rax, %rdi
	call	_ZSt12__get_helperILm1ESt14default_deleteINSt6thread6_StateEEJEERT0_RSt11_Tuple_implIXT_EJS4_DpT1_EE
	.loc 6 1398 43
	leave
	.cfi_def_cfa 7, 8
	ret
	.cfi_endproc
.LFE2606:
	.size	_ZSt3getILm1EJPNSt6thread6_StateESt14default_deleteIS1_EEERNSt13tuple_elementIXT_ESt5tupleIJDpT0_EEE4typeERS9_, .-_ZSt3getILm1EJPNSt6thread6_StateESt14default_deleteIS1_EEERNSt13tuple_elementIXT_ESt5tupleIJDpT0_EEE4typeERS9_
	.section	.text._ZNSt11_Tuple_implILm1EJSt14default_deleteINSt6thread6_StateEEEEC2Ev,"axG",@progbits,_ZNSt11_Tuple_implILm1EJSt14default_deleteINSt6thread6_StateEEEEC5Ev,comdat
	.align 2
	.weak	_ZNSt11_Tuple_implILm1EJSt14default_deleteINSt6thread6_StateEEEEC2Ev
	.type	_ZNSt11_Tuple_implILm1EJSt14default_deleteINSt6thread6_StateEEEEC2Ev, @function
_ZNSt11_Tuple_implILm1EJSt14default_deleteINSt6thread6_StateEEEEC2Ev:
.LFB2632:
	.loc 6 430 7
	.cfi_startproc
	endbr64
	pushq	%rbp
	.cfi_def_cfa_offset 16
	.cfi_offset 6, -16
	movq	%rsp, %rbp
	.cfi_def_cfa_register 6
	subq	$16, %rsp
	movq	%rdi, -8(%rbp)
.LBB29:
	.loc 6 431 15
	movq	-8(%rbp), %rax
	movq	%rax, %rdi
	call	_ZNSt10_Head_baseILm1ESt14default_deleteINSt6thread6_StateEELb1EEC2Ev
.LBE29:
	.loc 6 431 19
	nop
	leave
	.cfi_def_cfa 7, 8
	ret
	.cfi_endproc
.LFE2632:
	.size	_ZNSt11_Tuple_implILm1EJSt14default_deleteINSt6thread6_StateEEEEC2Ev, .-_ZNSt11_Tuple_implILm1EJSt14default_deleteINSt6thread6_StateEEEEC2Ev
	.weak	_ZNSt11_Tuple_implILm1EJSt14default_deleteINSt6thread6_StateEEEEC1Ev
	.set	_ZNSt11_Tuple_implILm1EJSt14default_deleteINSt6thread6_StateEEEEC1Ev,_ZNSt11_Tuple_implILm1EJSt14default_deleteINSt6thread6_StateEEEEC2Ev
	.section	.text._ZNSt10_Head_baseILm0EPNSt6thread6_StateELb0EEC2Ev,"axG",@progbits,_ZNSt10_Head_baseILm0EPNSt6thread6_StateELb0EEC5Ev,comdat
	.align 2
	.weak	_ZNSt10_Head_baseILm0EPNSt6thread6_StateELb0EEC2Ev
	.type	_ZNSt10_Head_baseILm0EPNSt6thread6_StateELb0EEC2Ev, @function
_ZNSt10_Head_baseILm0EPNSt6thread6_StateELb0EEC2Ev:
.LFB2635:
	.loc 6 189 17
	.cfi_startproc
	endbr64
	pushq	%rbp
	.cfi_def_cfa_offset 16
	.cfi_offset 6, -16
	movq	%rsp, %rbp
	.cfi_def_cfa_register 6
	movq	%rdi, -8(%rbp)
.LBB30:
	.loc 6 190 9
	movq	-8(%rbp), %rax
	movq	$0, (%rax)
.LBE30:
	.loc 6 190 26
	nop
	popq	%rbp
	.cfi_def_cfa 7, 8
	ret
	.cfi_endproc
.LFE2635:
	.size	_ZNSt10_Head_baseILm0EPNSt6thread6_StateELb0EEC2Ev, .-_ZNSt10_Head_baseILm0EPNSt6thread6_StateELb0EEC2Ev
	.weak	_ZNSt10_Head_baseILm0EPNSt6thread6_StateELb0EEC1Ev
	.set	_ZNSt10_Head_baseILm0EPNSt6thread6_StateELb0EEC1Ev,_ZNSt10_Head_baseILm0EPNSt6thread6_StateELb0EEC2Ev
	.section	.text._ZNSt11_Tuple_implILm0EJPNSt6thread6_StateESt14default_deleteIS1_EEE7_M_headERS5_,"axG",@progbits,_ZNSt11_Tuple_implILm0EJPNSt6thread6_StateESt14default_deleteIS1_EEE7_M_headERS5_,comdat
	.weak	_ZNSt11_Tuple_implILm0EJPNSt6thread6_StateESt14default_deleteIS1_EEE7_M_headERS5_
	.type	_ZNSt11_Tuple_implILm0EJPNSt6thread6_StateESt14default_deleteIS1_EEE7_M_headERS5_, @function
_ZNSt11_Tuple_implILm0EJPNSt6thread6_StateESt14default_deleteIS1_EEE7_M_headERS5_:
.LFB2637:
	.loc 6 268 7
	.cfi_startproc
	endbr64
	pushq	%rbp
	.cfi_def_cfa_offset 16
	.cfi_offset 6, -16
	movq	%rsp, %rbp
	.cfi_def_cfa_register 6
	subq	$16, %rsp
	movq	%rdi, -8(%rbp)
	.loc 6 268 65
	movq	-8(%rbp), %rax
	movq	%rax, %rdi
	call	_ZNSt10_Head_baseILm0EPNSt6thread6_StateELb0EE7_M_headERS3_
	.loc 6 268 72
	leave
	.cfi_def_cfa 7, 8
	ret
	.cfi_endproc
.LFE2637:
	.size	_ZNSt11_Tuple_implILm0EJPNSt6thread6_StateESt14default_deleteIS1_EEE7_M_headERS5_, .-_ZNSt11_Tuple_implILm0EJPNSt6thread6_StateESt14default_deleteIS1_EEE7_M_headERS5_
	.section	.text._ZSt12__get_helperILm1ESt14default_deleteINSt6thread6_StateEEJEERT0_RSt11_Tuple_implIXT_EJS4_DpT1_EE,"axG",@progbits,_ZSt12__get_helperILm1ESt14default_deleteINSt6thread6_StateEEJEERT0_RSt11_Tuple_implIXT_EJS4_DpT1_EE,comdat
	.weak	_ZSt12__get_helperILm1ESt14default_deleteINSt6thread6_StateEEJEERT0_RSt11_Tuple_implIXT_EJS4_DpT1_EE
	.type	_ZSt12__get_helperILm1ESt14default_deleteINSt6thread6_StateEEJEERT0_RSt11_Tuple_implIXT_EJS4_DpT1_EE, @function
_ZSt12__get_helperILm1ESt14default_deleteINSt6thread6_StateEEJEERT0_RSt11_Tuple_implIXT_EJS4_DpT1_EE:
.LFB2638:
	.loc 6 1381 5
	.cfi_startproc
	endbr64
	pushq	%rbp
	.cfi_def_cfa_offset 16
	.cfi_offset 6, -16
	movq	%rsp, %rbp
	.cfi_def_cfa_register 6
	subq	$16, %rsp
	movq	%rdi, -8(%rbp)
	.loc 6 1382 56
	movq	-8(%rbp), %rax
	movq	%rax, %rdi
	call	_ZNSt11_Tuple_implILm1EJSt14default_deleteINSt6thread6_StateEEEE7_M_headERS4_
	.loc 6 1382 63
	leave
	.cfi_def_cfa 7, 8
	ret
	.cfi_endproc
.LFE2638:
	.size	_ZSt12__get_helperILm1ESt14default_deleteINSt6thread6_StateEEJEERT0_RSt11_Tuple_implIXT_EJS4_DpT1_EE, .-_ZSt12__get_helperILm1ESt14default_deleteINSt6thread6_StateEEJEERT0_RSt11_Tuple_implIXT_EJS4_DpT1_EE
	.section	.text._ZNSt10_Head_baseILm1ESt14default_deleteINSt6thread6_StateEELb1EEC2Ev,"axG",@progbits,_ZNSt10_Head_baseILm1ESt14default_deleteINSt6thread6_StateEELb1EEC5Ev,comdat
	.align 2
	.weak	_ZNSt10_Head_baseILm1ESt14default_deleteINSt6thread6_StateEELb1EEC2Ev
	.type	_ZNSt10_Head_baseILm1ESt14default_deleteINSt6thread6_StateEELb1EEC2Ev, @function
_ZNSt10_Head_baseILm1ESt14default_deleteINSt6thread6_StateEELb1EEC2Ev:
.LFB2652:
	.loc 6 80 17
	.cfi_startproc
	endbr64
	pushq	%rbp
	.cfi_def_cfa_offset 16
	.cfi_offset 6, -16
	movq	%rsp, %rbp
	.cfi_def_cfa_register 6
	movq	%rdi, -8(%rbp)
	.loc 6 81 26
	nop
	popq	%rbp
	.cfi_def_cfa 7, 8
	ret
	.cfi_endproc
.LFE2652:
	.size	_ZNSt10_Head_baseILm1ESt14default_deleteINSt6thread6_StateEELb1EEC2Ev, .-_ZNSt10_Head_baseILm1ESt14default_deleteINSt6thread6_StateEELb1EEC2Ev
	.weak	_ZNSt10_Head_baseILm1ESt14default_deleteINSt6thread6_StateEELb1EEC1Ev
	.set	_ZNSt10_Head_baseILm1ESt14default_deleteINSt6thread6_StateEELb1EEC1Ev,_ZNSt10_Head_baseILm1ESt14default_deleteINSt6thread6_StateEELb1EEC2Ev
	.section	.text._ZNSt10_Head_baseILm0EPNSt6thread6_StateELb0EE7_M_headERS3_,"axG",@progbits,_ZNSt10_Head_baseILm0EPNSt6thread6_StateELb0EE7_M_headERS3_,comdat
	.weak	_ZNSt10_Head_baseILm0EPNSt6thread6_StateELb0EE7_M_headERS3_
	.type	_ZNSt10_Head_baseILm0EPNSt6thread6_StateELb0EE7_M_headERS3_, @function
_ZNSt10_Head_baseILm0EPNSt6thread6_StateELb0EE7_M_headERS3_:
.LFB2654:
	.loc 6 233 7
	.cfi_startproc
	endbr64
	pushq	%rbp
	.cfi_def_cfa_offset 16
	.cfi_offset 6, -16
	movq	%rsp, %rbp
	.cfi_def_cfa_register 6
	movq	%rdi, -8(%rbp)
	.loc 6 233 54
	movq	-8(%rbp), %rax
	.loc 6 233 68
	popq	%rbp
	.cfi_def_cfa 7, 8
	ret
	.cfi_endproc
.LFE2654:
	.size	_ZNSt10_Head_baseILm0EPNSt6thread6_StateELb0EE7_M_headERS3_, .-_ZNSt10_Head_baseILm0EPNSt6thread6_StateELb0EE7_M_headERS3_
	.section	.text._ZNSt11_Tuple_implILm1EJSt14default_deleteINSt6thread6_StateEEEE7_M_headERS4_,"axG",@progbits,_ZNSt11_Tuple_implILm1EJSt14default_deleteINSt6thread6_StateEEEE7_M_headERS4_,comdat
	.weak	_ZNSt11_Tuple_implILm1EJSt14default_deleteINSt6thread6_StateEEEE7_M_headERS4_
	.type	_ZNSt11_Tuple_implILm1EJSt14default_deleteINSt6thread6_StateEEEE7_M_headERS4_, @function
_ZNSt11_Tuple_implILm1EJSt14default_deleteINSt6thread6_StateEEEE7_M_headERS4_:
.LFB2655:
	.loc 6 424 7
	.cfi_startproc
	endbr64
	pushq	%rbp
	.cfi_def_cfa_offset 16
	.cfi_offset 6, -16
	movq	%rsp, %rbp
	.cfi_def_cfa_register 6
	subq	$16, %rsp
	movq	%rdi, -8(%rbp)
	.loc 6 424 65
	movq	-8(%rbp), %rax
	movq	%rax, %rdi
	call	_ZNSt10_Head_baseILm1ESt14default_deleteINSt6thread6_StateEELb1EE7_M_headERS4_
	.loc 6 424 72
	leave
	.cfi_def_cfa 7, 8
	ret
	.cfi_endproc
.LFE2655:
	.size	_ZNSt11_Tuple_implILm1EJSt14default_deleteINSt6thread6_StateEEEE7_M_headERS4_, .-_ZNSt11_Tuple_implILm1EJSt14default_deleteINSt6thread6_StateEEEE7_M_headERS4_
	.section	.text._ZNSt10_Head_baseILm1ESt14default_deleteINSt6thread6_StateEELb1EE7_M_headERS4_,"axG",@progbits,_ZNSt10_Head_baseILm1ESt14default_deleteINSt6thread6_StateEELb1EE7_M_headERS4_,comdat
	.weak	_ZNSt10_Head_baseILm1ESt14default_deleteINSt6thread6_StateEELb1EE7_M_headERS4_
	.type	_ZNSt10_Head_baseILm1ESt14default_deleteINSt6thread6_StateEELb1EE7_M_headERS4_, @function
_ZNSt10_Head_baseILm1ESt14default_deleteINSt6thread6_StateEELb1EE7_M_headERS4_:
.LFB2658:
	.loc 6 124 7
	.cfi_startproc
	endbr64
	pushq	%rbp
	.cfi_def_cfa_offset 16
	.cfi_offset 6, -16
	movq	%rsp, %rbp
	.cfi_def_cfa_register 6
	movq	%rdi, -8(%rbp)
	.loc 6 124 54
	movq	-8(%rbp), %rax
	.loc 6 124 68
	popq	%rbp
	.cfi_def_cfa 7, 8
	ret
	.cfi_endproc
.LFE2658:
	.size	_ZNSt10_Head_baseILm1ESt14default_deleteINSt6thread6_StateEELb1EE7_M_headERS4_, .-_ZNSt10_Head_baseILm1ESt14default_deleteINSt6thread6_StateEELb1EE7_M_headERS4_
	.weak	_ZTVNSt6thread11_State_implINS_8_InvokerISt5tupleIJPFvvEEEEEEE
	.section	.data.rel.ro.local._ZTVNSt6thread11_State_implINS_8_InvokerISt5tupleIJPFvvEEEEEEE,"awG",@progbits,_ZTVNSt6thread11_State_implINS_8_InvokerISt5tupleIJPFvvEEEEEEE,comdat
	.align 8
	.type	_ZTVNSt6thread11_State_implINS_8_InvokerISt5tupleIJPFvvEEEEEEE, @object
	.size	_ZTVNSt6thread11_State_implINS_8_InvokerISt5tupleIJPFvvEEEEEEE, 40
_ZTVNSt6thread11_State_implINS_8_InvokerISt5tupleIJPFvvEEEEEEE:
	.quad	0
	.quad	_ZTINSt6thread11_State_implINS_8_InvokerISt5tupleIJPFvvEEEEEEE
	.quad	_ZNSt6thread11_State_implINS_8_InvokerISt5tupleIJPFvvEEEEEED1Ev
	.quad	_ZNSt6thread11_State_implINS_8_InvokerISt5tupleIJPFvvEEEEEED0Ev
	.quad	_ZNSt6thread11_State_implINS_8_InvokerISt5tupleIJPFvvEEEEEE6_M_runEv
	.section	.text._ZNSt6thread11_State_implINS_8_InvokerISt5tupleIJPFvvEEEEEED2Ev,"axG",@progbits,_ZNSt6thread11_State_implINS_8_InvokerISt5tupleIJPFvvEEEEEED5Ev,comdat
	.align 2
	.weak	_ZNSt6thread11_State_implINS_8_InvokerISt5tupleIJPFvvEEEEEED2Ev
	.type	_ZNSt6thread11_State_implINS_8_InvokerISt5tupleIJPFvvEEEEEED2Ev, @function
_ZNSt6thread11_State_implINS_8_InvokerISt5tupleIJPFvvEEEEEED2Ev:
.LFB2660:
	.loc 2 201 14
	.cfi_startproc
	endbr64
	pushq	%rbp
	.cfi_def_cfa_offset 16
	.cfi_offset 6, -16
	movq	%rsp, %rbp
	.cfi_def_cfa_register 6
	subq	$16, %rsp
	movq	%rdi, -8(%rbp)
.LBB31:
	.loc 2 201 14
	leaq	16+_ZTVNSt6thread11_State_implINS_8_InvokerISt5tupleIJPFvvEEEEEEE(%rip), %rdx
	movq	-8(%rbp), %rax
	movq	%rdx, (%rax)
	movq	-8(%rbp), %rax
	movq	%rax, %rdi
	call	_ZNSt6thread6_StateD2Ev@PLT
.LBE31:
	nop
	leave
	.cfi_def_cfa 7, 8
	ret
	.cfi_endproc
.LFE2660:
	.size	_ZNSt6thread11_State_implINS_8_InvokerISt5tupleIJPFvvEEEEEED2Ev, .-_ZNSt6thread11_State_implINS_8_InvokerISt5tupleIJPFvvEEEEEED2Ev
	.weak	_ZNSt6thread11_State_implINS_8_InvokerISt5tupleIJPFvvEEEEEED1Ev
	.set	_ZNSt6thread11_State_implINS_8_InvokerISt5tupleIJPFvvEEEEEED1Ev,_ZNSt6thread11_State_implINS_8_InvokerISt5tupleIJPFvvEEEEEED2Ev
	.section	.text._ZNSt6thread11_State_implINS_8_InvokerISt5tupleIJPFvvEEEEEED0Ev,"axG",@progbits,_ZNSt6thread11_State_implINS_8_InvokerISt5tupleIJPFvvEEEEEED5Ev,comdat
	.align 2
	.weak	_ZNSt6thread11_State_implINS_8_InvokerISt5tupleIJPFvvEEEEEED0Ev
	.type	_ZNSt6thread11_State_implINS_8_InvokerISt5tupleIJPFvvEEEEEED0Ev, @function
_ZNSt6thread11_State_implINS_8_InvokerISt5tupleIJPFvvEEEEEED0Ev:
.LFB2662:
	.loc 2 201 14
	.cfi_startproc
	endbr64
	pushq	%rbp
	.cfi_def_cfa_offset 16
	.cfi_offset 6, -16
	movq	%rsp, %rbp
	.cfi_def_cfa_register 6
	subq	$16, %rsp
	movq	%rdi, -8(%rbp)
	.loc 2 201 14
	movq	-8(%rbp), %rax
	movq	%rax, %rdi
	call	_ZNSt6thread11_State_implINS_8_InvokerISt5tupleIJPFvvEEEEEED1Ev
	movq	-8(%rbp), %rax
	movl	$16, %esi
	movq	%rax, %rdi
	call	_ZdlPvm@PLT
	leave
	.cfi_def_cfa 7, 8
	ret
	.cfi_endproc
.LFE2662:
	.size	_ZNSt6thread11_State_implINS_8_InvokerISt5tupleIJPFvvEEEEEED0Ev, .-_ZNSt6thread11_State_implINS_8_InvokerISt5tupleIJPFvvEEEEEED0Ev
	.weak	_ZTINSt6thread11_State_implINS_8_InvokerISt5tupleIJPFvvEEEEEEE
	.section	.data.rel.ro._ZTINSt6thread11_State_implINS_8_InvokerISt5tupleIJPFvvEEEEEEE,"awG",@progbits,_ZTINSt6thread11_State_implINS_8_InvokerISt5tupleIJPFvvEEEEEEE,comdat
	.align 8
	.type	_ZTINSt6thread11_State_implINS_8_InvokerISt5tupleIJPFvvEEEEEEE, @object
	.size	_ZTINSt6thread11_State_implINS_8_InvokerISt5tupleIJPFvvEEEEEEE, 24
_ZTINSt6thread11_State_implINS_8_InvokerISt5tupleIJPFvvEEEEEEE:
	.quad	_ZTVN10__cxxabiv120__si_class_type_infoE+16
	.quad	_ZTSNSt6thread11_State_implINS_8_InvokerISt5tupleIJPFvvEEEEEEE
	.quad	_ZTINSt6thread6_StateE
	.weak	_ZTSNSt6thread11_State_implINS_8_InvokerISt5tupleIJPFvvEEEEEEE
	.section	.rodata._ZTSNSt6thread11_State_implINS_8_InvokerISt5tupleIJPFvvEEEEEEE,"aG",@progbits,_ZTSNSt6thread11_State_implINS_8_InvokerISt5tupleIJPFvvEEEEEEE,comdat
	.align 32
	.type	_ZTSNSt6thread11_State_implINS_8_InvokerISt5tupleIJPFvvEEEEEEE, @object
	.size	_ZTSNSt6thread11_State_implINS_8_InvokerISt5tupleIJPFvvEEEEEEE, 59
_ZTSNSt6thread11_State_implINS_8_InvokerISt5tupleIJPFvvEEEEEEE:
	.string	"NSt6thread11_State_implINS_8_InvokerISt5tupleIJPFvvEEEEEEE"
	.section	.text._ZNSt6thread11_State_implINS_8_InvokerISt5tupleIJPFvvEEEEEE6_M_runEv,"axG",@progbits,_ZNSt6thread11_State_implINS_8_InvokerISt5tupleIJPFvvEEEEEE6_M_runEv,comdat
	.align 2
	.weak	_ZNSt6thread11_State_implINS_8_InvokerISt5tupleIJPFvvEEEEEE6_M_runEv
	.type	_ZNSt6thread11_State_implINS_8_InvokerISt5tupleIJPFvvEEEEEE6_M_runEv, @function
_ZNSt6thread11_State_implINS_8_InvokerISt5tupleIJPFvvEEEEEE6_M_runEv:
.LFB2663:
	.loc 2 211 2
	.cfi_startproc
	endbr64
	pushq	%rbp
	.cfi_def_cfa_offset 16
	.cfi_offset 6, -16
	movq	%rsp, %rbp
	.cfi_def_cfa_register 6
	subq	$16, %rsp
	movq	%rdi, -8(%rbp)
	.loc 2 211 20
	movq	-8(%rbp), %rax
	addq	$8, %rax
	movq	%rax, %rdi
	call	_ZNSt6thread8_InvokerISt5tupleIJPFvvEEEEclEv
	.loc 2 211 24
	nop
	leave
	.cfi_def_cfa 7, 8
	ret
	.cfi_endproc
.LFE2663:
	.size	_ZNSt6thread11_State_implINS_8_InvokerISt5tupleIJPFvvEEEEEE6_M_runEv, .-_ZNSt6thread11_State_implINS_8_InvokerISt5tupleIJPFvvEEEEEE6_M_runEv
	.section	.text._ZNSt6thread8_InvokerISt5tupleIJPFvvEEEEclEv,"axG",@progbits,_ZNSt6thread8_InvokerISt5tupleIJPFvvEEEEclEv,comdat
	.align 2
	.weak	_ZNSt6thread8_InvokerISt5tupleIJPFvvEEEEclEv
	.type	_ZNSt6thread8_InvokerISt5tupleIJPFvvEEEEclEv, @function
_ZNSt6thread8_InvokerISt5tupleIJPFvvEEEEclEv:
.LFB2664:
	.loc 2 256 2
	.cfi_startproc
	endbr64
	pushq	%rbp
	.cfi_def_cfa_offset 16
	.cfi_offset 6, -16
	movq	%rsp, %rbp
	.cfi_def_cfa_register 6
	subq	$16, %rsp
	movq	%rdi, -8(%rbp)
	.loc 2 260 20
	movq	-8(%rbp), %rax
	movq	%rax, %rdi
	call	_ZNSt6thread8_InvokerISt5tupleIJPFvvEEEE9_M_invokeIJLm0EEEEvSt12_Index_tupleIJXspT_EEE
	.loc 2 260 31
	nop
	.loc 2 261 2
	leave
	.cfi_def_cfa 7, 8
	ret
	.cfi_endproc
.LFE2664:
	.size	_ZNSt6thread8_InvokerISt5tupleIJPFvvEEEEclEv, .-_ZNSt6thread8_InvokerISt5tupleIJPFvvEEEEclEv
	.section	.text._ZNSt6thread8_InvokerISt5tupleIJPFvvEEEE9_M_invokeIJLm0EEEEvSt12_Index_tupleIJXspT_EEE,"axG",@progbits,_ZNSt6thread8_InvokerISt5tupleIJPFvvEEEE9_M_invokeIJLm0EEEEvSt12_Index_tupleIJXspT_EEE,comdat
	.align 2
	.weak	_ZNSt6thread8_InvokerISt5tupleIJPFvvEEEE9_M_invokeIJLm0EEEEvSt12_Index_tupleIJXspT_EEE
	.type	_ZNSt6thread8_InvokerISt5tupleIJPFvvEEEE9_M_invokeIJLm0EEEEvSt12_Index_tupleIJXspT_EEE, @function
_ZNSt6thread8_InvokerISt5tupleIJPFvvEEEE9_M_invokeIJLm0EEEEvSt12_Index_tupleIJXspT_EEE:
.LFB2665:
	.loc 2 252 4
	.cfi_startproc
	endbr64
	pushq	%rbp
	.cfi_def_cfa_offset 16
	.cfi_offset 6, -16
	movq	%rsp, %rbp
	.cfi_def_cfa_register 6
	subq	$16, %rsp
	movq	%rdi, -8(%rbp)
	.loc 2 253 52
	movq	-8(%rbp), %rax
	.loc 2 253 51
	movq	%rax, %rdi
	call	_ZSt4moveIRSt5tupleIJPFvvEEEEONSt16remove_referenceIT_E4typeEOS6_
	.loc 2 253 41
	movq	%rax, %rdi
	call	_ZSt3getILm0EJPFvvEEEONSt13tuple_elementIXT_ESt5tupleIJDpT0_EEE4typeEOS6_
	.loc 2 253 26
	movq	%rax, %rdi
	call	_ZSt8__invokeIPFvvEJEENSt15__invoke_resultIT_JDpT0_EE4typeEOS3_DpOS4_
	.loc 2 253 61
	nop
	.loc 2 253 64
	leave
	.cfi_def_cfa 7, 8
	ret
	.cfi_endproc
.LFE2665:
	.size	_ZNSt6thread8_InvokerISt5tupleIJPFvvEEEE9_M_invokeIJLm0EEEEvSt12_Index_tupleIJXspT_EEE, .-_ZNSt6thread8_InvokerISt5tupleIJPFvvEEEE9_M_invokeIJLm0EEEEvSt12_Index_tupleIJXspT_EEE
	.section	.text._ZSt4moveIRSt5tupleIJPFvvEEEEONSt16remove_referenceIT_E4typeEOS6_,"axG",@progbits,_ZSt4moveIRSt5tupleIJPFvvEEEEONSt16remove_referenceIT_E4typeEOS6_,comdat
	.weak	_ZSt4moveIRSt5tupleIJPFvvEEEEONSt16remove_referenceIT_E4typeEOS6_
	.type	_ZSt4moveIRSt5tupleIJPFvvEEEEONSt16remove_referenceIT_E4typeEOS6_, @function
_ZSt4moveIRSt5tupleIJPFvvEEEEONSt16remove_referenceIT_E4typeEOS6_:
.LFB2667:
	.loc 5 104 5
	.cfi_startproc
	endbr64
	pushq	%rbp
	.cfi_def_cfa_offset 16
	.cfi_offset 6, -16
	movq	%rsp, %rbp
	.cfi_def_cfa_register 6
	movq	%rdi, -8(%rbp)
	.loc 5 105 74
	movq	-8(%rbp), %rax
	.loc 5 105 77
	popq	%rbp
	.cfi_def_cfa 7, 8
	ret
	.cfi_endproc
.LFE2667:
	.size	_ZSt4moveIRSt5tupleIJPFvvEEEEONSt16remove_referenceIT_E4typeEOS6_, .-_ZSt4moveIRSt5tupleIJPFvvEEEEONSt16remove_referenceIT_E4typeEOS6_
	.section	.text._ZSt3getILm0EJPFvvEEEONSt13tuple_elementIXT_ESt5tupleIJDpT0_EEE4typeEOS6_,"axG",@progbits,_ZSt3getILm0EJPFvvEEEONSt13tuple_elementIXT_ESt5tupleIJDpT0_EEE4typeEOS6_,comdat
	.weak	_ZSt3getILm0EJPFvvEEEONSt13tuple_elementIXT_ESt5tupleIJDpT0_EEE4typeEOS6_
	.type	_ZSt3getILm0EJPFvvEEEONSt13tuple_elementIXT_ESt5tupleIJDpT0_EEE4typeEOS6_, @function
_ZSt3getILm0EJPFvvEEEONSt13tuple_elementIXT_ESt5tupleIJDpT0_EEE4typeEOS6_:
.LFB2668:
	.loc 6 1409 5
	.cfi_startproc
	endbr64
	pushq	%rbp
	.cfi_def_cfa_offset 16
	.cfi_offset 6, -16
	movq	%rsp, %rbp
	.cfi_def_cfa_register 6
	subq	$16, %rsp
	movq	%rdi, -8(%rbp)
	.loc 6 1412 65
	movq	-8(%rbp), %rax
	movq	%rax, %rdi
	call	_ZSt12__get_helperILm0EPFvvEJEERT0_RSt11_Tuple_implIXT_EJS2_DpT1_EE
	.loc 6 1412 42
	movq	%rax, %rdi
	call	_ZSt7forwardIPFvvEEOT_RNSt16remove_referenceIS2_E4typeE
	.loc 6 1413 5
	leave
	.cfi_def_cfa 7, 8
	ret
	.cfi_endproc
.LFE2668:
	.size	_ZSt3getILm0EJPFvvEEEONSt13tuple_elementIXT_ESt5tupleIJDpT0_EEE4typeEOS6_, .-_ZSt3getILm0EJPFvvEEEONSt13tuple_elementIXT_ESt5tupleIJDpT0_EEE4typeEOS6_
	.section	.text._ZSt8__invokeIPFvvEJEENSt15__invoke_resultIT_JDpT0_EE4typeEOS3_DpOS4_,"axG",@progbits,_ZSt8__invokeIPFvvEJEENSt15__invoke_resultIT_JDpT0_EE4typeEOS3_DpOS4_,comdat
	.weak	_ZSt8__invokeIPFvvEJEENSt15__invoke_resultIT_JDpT0_EE4typeEOS3_DpOS4_
	.type	_ZSt8__invokeIPFvvEJEENSt15__invoke_resultIT_JDpT0_EE4typeEOS3_DpOS4_, @function
_ZSt8__invokeIPFvvEJEENSt15__invoke_resultIT_JDpT0_EE4typeEOS3_DpOS4_:
.LFB2669:
	.file 8 "/usr/include/c++/11/bits/invoke.h"
	.loc 8 90 5
	.cfi_startproc
	endbr64
	pushq	%rbp
	.cfi_def_cfa_offset 16
	.cfi_offset 6, -16
	movq	%rsp, %rbp
	.cfi_def_cfa_register 6
	subq	$16, %rsp
	movq	%rdi, -8(%rbp)
	.loc 8 96 40
	movq	-8(%rbp), %rax
	movq	%rax, %rdi
	call	_ZSt7forwardIPFvvEEOT_RNSt16remove_referenceIS2_E4typeE
	movq	%rax, %rdi
	call	_ZSt13__invoke_implIvPFvvEJEET_St14__invoke_otherOT0_DpOT1_
	.loc 8 97 36
	nop
	.loc 8 98 5
	leave
	.cfi_def_cfa 7, 8
	ret
	.cfi_endproc
.LFE2669:
	.size	_ZSt8__invokeIPFvvEJEENSt15__invoke_resultIT_JDpT0_EE4typeEOS3_DpOS4_, .-_ZSt8__invokeIPFvvEJEENSt15__invoke_resultIT_JDpT0_EE4typeEOS3_DpOS4_
	.section	.text._ZSt12__get_helperILm0EPFvvEJEERT0_RSt11_Tuple_implIXT_EJS2_DpT1_EE,"axG",@progbits,_ZSt12__get_helperILm0EPFvvEJEERT0_RSt11_Tuple_implIXT_EJS2_DpT1_EE,comdat
	.weak	_ZSt12__get_helperILm0EPFvvEJEERT0_RSt11_Tuple_implIXT_EJS2_DpT1_EE
	.type	_ZSt12__get_helperILm0EPFvvEJEERT0_RSt11_Tuple_implIXT_EJS2_DpT1_EE, @function
_ZSt12__get_helperILm0EPFvvEJEERT0_RSt11_Tuple_implIXT_EJS2_DpT1_EE:
.LFB2670:
	.loc 6 1381 5
	.cfi_startproc
	endbr64
	pushq	%rbp
	.cfi_def_cfa_offset 16
	.cfi_offset 6, -16
	movq	%rsp, %rbp
	.cfi_def_cfa_register 6
	subq	$16, %rsp
	movq	%rdi, -8(%rbp)
	.loc 6 1382 56
	movq	-8(%rbp), %rax
	movq	%rax, %rdi
	call	_ZNSt11_Tuple_implILm0EJPFvvEEE7_M_headERS2_
	.loc 6 1382 63
	leave
	.cfi_def_cfa 7, 8
	ret
	.cfi_endproc
.LFE2670:
	.size	_ZSt12__get_helperILm0EPFvvEJEERT0_RSt11_Tuple_implIXT_EJS2_DpT1_EE, .-_ZSt12__get_helperILm0EPFvvEJEERT0_RSt11_Tuple_implIXT_EJS2_DpT1_EE
	.section	.text._ZSt7forwardIPFvvEEOT_RNSt16remove_referenceIS2_E4typeE,"axG",@progbits,_ZSt7forwardIPFvvEEOT_RNSt16remove_referenceIS2_E4typeE,comdat
	.weak	_ZSt7forwardIPFvvEEOT_RNSt16remove_referenceIS2_E4typeE
	.type	_ZSt7forwardIPFvvEEOT_RNSt16remove_referenceIS2_E4typeE, @function
_ZSt7forwardIPFvvEEOT_RNSt16remove_referenceIS2_E4typeE:
.LFB2671:
	.loc 5 77 5
	.cfi_startproc
	endbr64
	pushq	%rbp
	.cfi_def_cfa_offset 16
	.cfi_offset 6, -16
	movq	%rsp, %rbp
	.cfi_def_cfa_register 6
	movq	%rdi, -8(%rbp)
	.loc 5 78 36
	movq	-8(%rbp), %rax
	.loc 5 78 39
	popq	%rbp
	.cfi_def_cfa 7, 8
	ret
	.cfi_endproc
.LFE2671:
	.size	_ZSt7forwardIPFvvEEOT_RNSt16remove_referenceIS2_E4typeE, .-_ZSt7forwardIPFvvEEOT_RNSt16remove_referenceIS2_E4typeE
	.section	.text._ZSt13__invoke_implIvPFvvEJEET_St14__invoke_otherOT0_DpOT1_,"axG",@progbits,_ZSt13__invoke_implIvPFvvEJEET_St14__invoke_otherOT0_DpOT1_,comdat
	.weak	_ZSt13__invoke_implIvPFvvEJEET_St14__invoke_otherOT0_DpOT1_
	.type	_ZSt13__invoke_implIvPFvvEJEET_St14__invoke_otherOT0_DpOT1_, @function
_ZSt13__invoke_implIvPFvvEJEET_St14__invoke_otherOT0_DpOT1_:
.LFB2672:
	.loc 8 60 5
	.cfi_startproc
	endbr64
	pushq	%rbp
	.cfi_def_cfa_offset 16
	.cfi_offset 6, -16
	movq	%rsp, %rbp
	.cfi_def_cfa_register 6
	subq	$16, %rsp
	movq	%rdi, -8(%rbp)
	.loc 8 61 31
	movq	-8(%rbp), %rax
	movq	%rax, %rdi
	call	_ZSt7forwardIPFvvEEOT_RNSt16remove_referenceIS2_E4typeE
	.loc 8 61 36
	movq	(%rax), %rax
	call	*%rax
.LVL1:
	.loc 8 61 67
	nop
	.loc 8 61 70
	leave
	.cfi_def_cfa 7, 8
	ret
	.cfi_endproc
.LFE2672:
	.size	_ZSt13__invoke_implIvPFvvEJEET_St14__invoke_otherOT0_DpOT1_, .-_ZSt13__invoke_implIvPFvvEJEET_St14__invoke_otherOT0_DpOT1_
	.section	.text._ZNSt11_Tuple_implILm0EJPFvvEEE7_M_headERS2_,"axG",@progbits,_ZNSt11_Tuple_implILm0EJPFvvEEE7_M_headERS2_,comdat
	.weak	_ZNSt11_Tuple_implILm0EJPFvvEEE7_M_headERS2_
	.type	_ZNSt11_Tuple_implILm0EJPFvvEEE7_M_headERS2_, @function
_ZNSt11_Tuple_implILm0EJPFvvEEE7_M_headERS2_:
.LFB2673:
	.loc 6 424 7
	.cfi_startproc
	endbr64
	pushq	%rbp
	.cfi_def_cfa_offset 16
	.cfi_offset 6, -16
	movq	%rsp, %rbp
	.cfi_def_cfa_register 6
	subq	$16, %rsp
	movq	%rdi, -8(%rbp)
	.loc 6 424 65
	movq	-8(%rbp), %rax
	movq	%rax, %rdi
	call	_ZNSt10_Head_baseILm0EPFvvELb0EE7_M_headERS2_
	.loc 6 424 72
	leave
	.cfi_def_cfa 7, 8
	ret
	.cfi_endproc
.LFE2673:
	.size	_ZNSt11_Tuple_implILm0EJPFvvEEE7_M_headERS2_, .-_ZNSt11_Tuple_implILm0EJPFvvEEE7_M_headERS2_
	.section	.text._ZNSt10_Head_baseILm0EPFvvELb0EE7_M_headERS2_,"axG",@progbits,_ZNSt10_Head_baseILm0EPFvvELb0EE7_M_headERS2_,comdat
	.weak	_ZNSt10_Head_baseILm0EPFvvELb0EE7_M_headERS2_
	.type	_ZNSt10_Head_baseILm0EPFvvELb0EE7_M_headERS2_, @function
_ZNSt10_Head_baseILm0EPFvvELb0EE7_M_headERS2_:
.LFB2674:
	.loc 6 233 7
	.cfi_startproc
	endbr64
	pushq	%rbp
	.cfi_def_cfa_offset 16
	.cfi_offset 6, -16
	movq	%rsp, %rbp
	.cfi_def_cfa_register 6
	movq	%rdi, -8(%rbp)
	.loc 6 233 54
	movq	-8(%rbp), %rax
	.loc 6 233 68
	popq	%rbp
	.cfi_def_cfa 7, 8
	ret
	.cfi_endproc
.LFE2674:
	.size	_ZNSt10_Head_baseILm0EPFvvELb0EE7_M_headERS2_, .-_ZNSt10_Head_baseILm0EPFvvELb0EE7_M_headERS2_
	.text
.Letext0:
	.file 9 "<built-in>"
	.file 10 "/usr/lib/gcc/x86_64-linux-gnu/11/include/stddef.h"
	.file 11 "/usr/include/x86_64-linux-gnu/bits/types.h"
	.file 12 "/usr/include/x86_64-linux-gnu/bits/types/__mbstate_t.h"
	.file 13 "/usr/include/x86_64-linux-gnu/bits/types/__fpos_t.h"
	.file 14 "/usr/include/x86_64-linux-gnu/bits/types/__FILE.h"
	.file 15 "/usr/include/x86_64-linux-gnu/bits/types/struct_FILE.h"
	.file 16 "/usr/include/x86_64-linux-gnu/bits/types/FILE.h"
	.file 17 "/usr/include/stdio.h"
	.file 18 "/usr/include/x86_64-linux-gnu/c++/11/bits/c++config.h"
	.file 19 "/usr/include/c++/11/type_traits"
	.file 20 "/usr/include/c++/11/bits/exception_ptr.h"
	.file 21 "/usr/include/c++/11/cwchar"
	.file 22 "/usr/include/c++/11/bits/stl_iterator_base_types.h"
	.file 23 "/usr/include/c++/11/debug/debug.h"
	.file 24 "/usr/include/c++/11/bits/uses_allocator.h"
	.file 25 "/usr/include/c++/11/cstdint"
	.file 26 "/usr/include/c++/11/ctime"
	.file 27 "/usr/include/c++/11/chrono"
	.file 28 "/usr/include/c++/11/cstdlib"
	.file 29 "/usr/include/c++/11/bits/std_abs.h"
	.file 30 "/usr/include/c++/11/clocale"
	.file 31 "/usr/include/c++/11/cstdio"
	.file 32 "/usr/include/c++/11/system_error"
	.file 33 "/usr/include/c++/11/utility"
	.file 34 "/usr/include/c++/11/exception"
	.file 35 "/usr/include/c++/11/bits/functexcept.h"
	.file 36 "/usr/include/x86_64-linux-gnu/bits/types/wint_t.h"
	.file 37 "/usr/include/x86_64-linux-gnu/bits/types/mbstate_t.h"
	.file 38 "/usr/include/wchar.h"
	.file 39 "/usr/include/x86_64-linux-gnu/bits/types/struct_tm.h"
	.file 40 "/usr/include/c++/11/bits/predefined_ops.h"
	.file 41 "/usr/include/x86_64-linux-gnu/bits/types/time_t.h"
	.file 42 "/usr/include/x86_64-linux-gnu/bits/types/struct_timespec.h"
	.file 43 "/usr/include/x86_64-linux-gnu/bits/types/clock_t.h"
	.file 44 "/usr/include/x86_64-linux-gnu/bits/thread-shared-types.h"
	.file 45 "/usr/include/x86_64-linux-gnu/bits/struct_mutex.h"
	.file 46 "/usr/include/x86_64-linux-gnu/bits/pthreadtypes.h"
	.file 47 "/usr/include/x86_64-linux-gnu/bits/stdint-intn.h"
	.file 48 "/usr/include/x86_64-linux-gnu/bits/stdint-uintn.h"
	.file 49 "/usr/include/stdint.h"
	.file 50 "/usr/include/time.h"
	.file 51 "/usr/include/stdlib.h"
	.file 52 "/usr/include/c++/11/stdlib.h"
	.file 53 "/usr/include/locale.h"
	.file 54 "/usr/include/c++/11/new"
	.file 55 "/usr/include/pthread.h"
	.section	.data.rel.local.DW.ref.__gxx_personality_v0,"awG",@progbits,DW.ref.__gxx_personality_v0,comdat
	.align 8
	.type	DW.ref.__gxx_personality_v0, @object
	.size	DW.ref.__gxx_personality_v0, 8
DW.ref.__gxx_personality_v0:
	.quad	__gxx_personality_v0
	.ident	"GCC: (Ubuntu 11.3.0-1ubuntu1~22.04) 11.3.0"
	.section	.note.GNU-stack,"",@progbits
	.section	.note.gnu.property,"a"
	.align 8
	.long	1f - 0f
	.long	4f - 1f
	.long	5
0:
	.string	"GNU"
1:
	.align 8
	.long	0xc0000002
	.long	3f - 2f
2:
	.long	0x3
3:
	.align 8
4:
